; ModuleID = 'GEMM.markov.bc'
source_filename = "ld-temp.o"
target datalayout = "e-m:e-i64:64-f80:128-n8:16:32:64-S128"
target triple = "x86_64-unknown-linux-gnu"

%struct.timespec = type { i64, i64 }
%"class.std::function" = type { %"class.std::_Function_base", void (%"union.std::_Any_data"*)* }
%"class.std::_Function_base" = type { %"union.std::_Any_data", i1 (%"union.std::_Any_data"*, %"union.std::_Any_data"*, i32)* }
%"union.std::_Any_data" = type { %"union.std::_Nocopy_types" }
%"union.std::_Nocopy_types" = type { { i64, i64 } }
%class.anon = type { [64 x float]**, [64 x float]**, [64 x float]** }
%"struct.std::_Maybe_unary_or_binary_function" = type { i8 }
%"class.std::type_info" = type { i32 (...)**, i8* }

$_Z21__TIMINGLIB_benchmarkRKSt8functionIFvvEE = comdat any

$_ZNSt8functionIFvvEED2Ev = comdat any

$_ZNSt14_Function_baseD2Ev = comdat any

$__clang_call_terminate = comdat any

$_ZNKSt8functionIFvvEEclEv = comdat any

$_ZNKSt14_Function_base8_M_emptyEv = comdat any

$_ZNSt14_Function_baseC2Ev = comdat any

$_ZNSt9_Any_data9_M_accessIPKSt9type_infoEERT_v = comdat any

$_ZNKSt9_Any_data9_M_accessEv = comdat any

$_ZNSt9_Any_data9_M_accessEv = comdat any

@__TIMINGLIB_START = internal global %struct.timespec zeroinitializer, align 8, !ValueID !0
@__TIMINGLIB_END = internal global %struct.timespec zeroinitializer, align 8, !ValueID !1
@__TIMINGLIB_iterations = internal global i8 0, align 1, !ValueID !2
@__TIMINGLIB_array = internal global [1 x double] zeroinitializer, align 8, !ValueID !3
@.str = private unnamed_addr constant [27 x i8] c"Average running time: %gs\0A\00", align 1
@"_ZTIZ4mainE3$_0" = internal constant { i8*, i8* } { i8* bitcast (i8** getelementptr inbounds (i8*, i8** @_ZTVN10__cxxabiv117__class_type_infoE, i64 2) to i8*), i8* getelementptr inbounds ([12 x i8], [12 x i8]* @"_ZTSZ4mainE3$_0", i32 0, i32 0) }, align 8
@_ZTVN10__cxxabiv117__class_type_infoE = external dso_local global i8*
@"_ZTSZ4mainE3$_0" = internal constant [12 x i8] c"Z4mainE3$_0\00", align 1
@MarkovBlockCount = global i64 186

; Function Attrs: noinline nounwind optnone uwtable
define internal void @_Z22__TIMINGLIB_start_timev() #0 !ValueID !8 {
  call void @MarkovIncrement(i64 0, i1 true)
  br label %1, !BlockID !9, !ValueID !9

1:                                                ; preds = %0
  call void @MarkovIncrement(i64 1, i1 false)
  %2 = call i32 @clock_gettime(i32 1, %struct.timespec* @__TIMINGLIB_START) #10, !BlockID !10, !ValueID !10
  br label %3, !ValueID !11

3:                                                ; preds = %1
  call void @MarkovIncrement(i64 2, i1 false)
  ret void, !BlockID !0, !ValueID !12
}

; Function Attrs: nounwind
declare !ValueID !13 dso_local i32 @clock_gettime(i32, %struct.timespec*) #1

; Function Attrs: noinline nounwind optnone uwtable
define internal double @_Z20__TIMINGLIB_end_timev() #0 !ValueID !14 {
  call void @MarkovIncrement(i64 3, i1 true)
  %1 = alloca double, align 8, !BlockID !13, !ValueID !15
  %2 = alloca double, align 8, !ValueID !16
  br label %3, !ValueID !17

3:                                                ; preds = %0
  call void @MarkovIncrement(i64 4, i1 false)
  %4 = call i32 @clock_gettime(i32 1, %struct.timespec* @__TIMINGLIB_END) #10, !BlockID !11, !ValueID !18
  br label %5, !ValueID !19

5:                                                ; preds = %3
  call void @MarkovIncrement(i64 5, i1 false)
  %6 = load i64, i64* getelementptr inbounds (%struct.timespec, %struct.timespec* @__TIMINGLIB_END, i32 0, i32 0), align 8, !BlockID !12, !ValueID !20
  %7 = sitofp i64 %6 to double, !ValueID !21
  %8 = load i64, i64* getelementptr inbounds (%struct.timespec, %struct.timespec* @__TIMINGLIB_START, i32 0, i32 0), align 8, !ValueID !22
  %9 = sitofp i64 %8 to double, !ValueID !23
  %10 = fsub double %7, %9, !ValueID !24
  store double %10, double* %1, align 8, !ValueID !25
  %11 = load i64, i64* getelementptr inbounds (%struct.timespec, %struct.timespec* @__TIMINGLIB_END, i32 0, i32 1), align 8, !ValueID !26
  %12 = sitofp i64 %11 to double, !ValueID !27
  %13 = load i64, i64* getelementptr inbounds (%struct.timespec, %struct.timespec* @__TIMINGLIB_START, i32 0, i32 1), align 8, !ValueID !28
  %14 = sitofp i64 %13 to double, !ValueID !29
  %15 = fsub double %12, %14, !ValueID !30
  br label %16, !ValueID !31

16:                                               ; preds = %5
  call void @MarkovIncrement(i64 6, i1 false)
  %17 = call double @pow(double 1.000000e+01, double -9.000000e+00) #10, !BlockID !15, !ValueID !32
  br label %18, !ValueID !33

18:                                               ; preds = %16
  call void @MarkovIncrement(i64 7, i1 false)
  %19 = fmul double %15, %17, !BlockID !16, !ValueID !34
  store double %19, double* %2, align 8, !ValueID !35
  %20 = load double, double* %1, align 8, !ValueID !36
  %21 = load double, double* %2, align 8, !ValueID !37
  %22 = fadd double %20, %21, !ValueID !38
  %23 = load i8, i8* @__TIMINGLIB_iterations, align 1, !ValueID !39
  %24 = zext i8 %23 to i64, !ValueID !40
  %25 = getelementptr inbounds [1 x double], [1 x double]* @__TIMINGLIB_array, i64 0, i64 %24, !ValueID !41
  store double %22, double* %25, align 8, !ValueID !42
  %26 = load i8, i8* @__TIMINGLIB_iterations, align 1, !ValueID !43
  %27 = add i8 %26, 1, !ValueID !44
  store i8 %27, i8* @__TIMINGLIB_iterations, align 1, !ValueID !45
  %28 = load double, double* %1, align 8, !ValueID !46
  %29 = load double, double* %2, align 8, !ValueID !47
  %30 = fadd double %28, %29, !ValueID !48
  ret double %30, !ValueID !49
}

; Function Attrs: nounwind
declare !ValueID !50 dso_local double @pow(double, double) #1

; Function Attrs: noinline nounwind optnone uwtable
define internal void @_Z4GEMMPA64_fS0_S0_([64 x float]*, [64 x float]*, [64 x float]*) #0 !ValueID !51 !ArgId0 !52 !ArgId1 !53 !ArgId2 !54 {
  call void @MarkovIncrement(i64 8, i1 true)
  %4 = alloca [64 x float]*, align 8, !BlockID !17, !ValueID !55
  %5 = alloca [64 x float]*, align 8, !ValueID !56
  %6 = alloca [64 x float]*, align 8, !ValueID !57
  %7 = alloca i32, align 4, !ValueID !58
  %8 = alloca i32, align 4, !ValueID !59
  %9 = alloca i32, align 4, !ValueID !60
  store [64 x float]* %0, [64 x float]** %4, align 8, !ValueID !61
  store [64 x float]* %1, [64 x float]** %5, align 8, !ValueID !62
  store [64 x float]* %2, [64 x float]** %6, align 8, !ValueID !63
  store i32 0, i32* %7, align 4, !ValueID !64
  br label %10, !ValueID !65

10:                                               ; preds = %56, %3
  call void @MarkovIncrement(i64 9, i1 false)
  %11 = load i32, i32* %7, align 4, !BlockID !18, !ValueID !66
  %12 = icmp slt i32 %11, 64, !ValueID !67
  br i1 %12, label %13, label %59, !ValueID !68

13:                                               ; preds = %10
  call void @MarkovIncrement(i64 10, i1 false)
  store i32 0, i32* %8, align 4, !BlockID !1, !ValueID !69
  br label %14, !ValueID !70

14:                                               ; preds = %52, %13
  call void @MarkovIncrement(i64 11, i1 false)
  %15 = load i32, i32* %8, align 4, !BlockID !19, !ValueID !71
  %16 = icmp slt i32 %15, 64, !ValueID !72
  br i1 %16, label %17, label %55, !ValueID !73

17:                                               ; preds = %14
  call void @MarkovIncrement(i64 12, i1 false)
  store i32 0, i32* %9, align 4, !BlockID !20, !ValueID !74
  br label %18, !ValueID !75

18:                                               ; preds = %48, %17
  call void @MarkovIncrement(i64 13, i1 false)
  %19 = load i32, i32* %9, align 4, !BlockID !21, !ValueID !76
  %20 = icmp slt i32 %19, 64, !ValueID !77
  br i1 %20, label %21, label %51, !ValueID !78

21:                                               ; preds = %18
  call void @MarkovIncrement(i64 14, i1 false)
  %22 = load [64 x float]*, [64 x float]** %4, align 8, !BlockID !22, !ValueID !79
  %23 = load i32, i32* %7, align 4, !ValueID !80
  %24 = sext i32 %23 to i64, !ValueID !81
  %25 = getelementptr inbounds [64 x float], [64 x float]* %22, i64 %24, !ValueID !82
  %26 = load i32, i32* %9, align 4, !ValueID !83
  %27 = sext i32 %26 to i64, !ValueID !84
  %28 = getelementptr inbounds [64 x float], [64 x float]* %25, i64 0, i64 %27, !ValueID !85
  %29 = load float, float* %28, align 4, !ValueID !86
  %30 = load [64 x float]*, [64 x float]** %5, align 8, !ValueID !87
  %31 = load i32, i32* %9, align 4, !ValueID !88
  %32 = sext i32 %31 to i64, !ValueID !89
  %33 = getelementptr inbounds [64 x float], [64 x float]* %30, i64 %32, !ValueID !90
  %34 = load i32, i32* %8, align 4, !ValueID !91
  %35 = sext i32 %34 to i64, !ValueID !92
  %36 = getelementptr inbounds [64 x float], [64 x float]* %33, i64 0, i64 %35, !ValueID !93
  %37 = load float, float* %36, align 4, !ValueID !94
  %38 = fmul float %29, %37, !ValueID !95
  %39 = load [64 x float]*, [64 x float]** %6, align 8, !ValueID !96
  %40 = load i32, i32* %7, align 4, !ValueID !97
  %41 = sext i32 %40 to i64, !ValueID !98
  %42 = getelementptr inbounds [64 x float], [64 x float]* %39, i64 %41, !ValueID !99
  %43 = load i32, i32* %8, align 4, !ValueID !100
  %44 = sext i32 %43 to i64, !ValueID !101
  %45 = getelementptr inbounds [64 x float], [64 x float]* %42, i64 0, i64 %44, !ValueID !102
  %46 = load float, float* %45, align 4, !ValueID !103
  %47 = fadd float %46, %38, !ValueID !104
  store float %47, float* %45, align 4, !ValueID !105
  br label %48, !ValueID !106

48:                                               ; preds = %21
  call void @MarkovIncrement(i64 15, i1 false)
  %49 = load i32, i32* %9, align 4, !BlockID !23, !ValueID !107
  %50 = add nsw i32 %49, 1, !ValueID !108
  store i32 %50, i32* %9, align 4, !ValueID !109
  br label %18, !ValueID !110

51:                                               ; preds = %18
  call void @MarkovIncrement(i64 16, i1 false)
  br label %52, !BlockID !24, !ValueID !111

52:                                               ; preds = %51
  call void @MarkovIncrement(i64 17, i1 false)
  %53 = load i32, i32* %8, align 4, !BlockID !25, !ValueID !112
  %54 = add nsw i32 %53, 1, !ValueID !113
  store i32 %54, i32* %8, align 4, !ValueID !114
  br label %14, !ValueID !115

55:                                               ; preds = %14
  call void @MarkovIncrement(i64 18, i1 false)
  br label %56, !BlockID !26, !ValueID !116

56:                                               ; preds = %55
  call void @MarkovIncrement(i64 19, i1 false)
  %57 = load i32, i32* %7, align 4, !BlockID !27, !ValueID !117
  %58 = add nsw i32 %57, 1, !ValueID !118
  store i32 %58, i32* %7, align 4, !ValueID !119
  br label %10, !ValueID !120

59:                                               ; preds = %10
  call void @MarkovIncrement(i64 20, i1 false)
  ret void, !BlockID !28, !ValueID !121
}

; Function Attrs: noinline norecurse optnone uwtable
define dso_local i32 @main() #2 personality i8* bitcast (i32 (...)* @__gxx_personality_v0 to i8*) {
  call void @MarkovInit(i64 186, i64 21)
  %1 = alloca i32, align 4, !BlockID !29, !ValueID !122
  %2 = alloca [64 x float]*, align 8, !ValueID !123
  %3 = alloca [64 x float]*, align 8, !ValueID !124
  %4 = alloca [64 x float]*, align 8, !ValueID !125
  %5 = alloca i32, align 4, !ValueID !126
  %6 = alloca i32, align 4, !ValueID !127
  %7 = alloca %"class.std::function", align 8, !ValueID !128
  %8 = alloca %class.anon, align 8, !ValueID !129
  %9 = alloca i8*, !ValueID !130
  %10 = alloca i32, !ValueID !131
  store i32 0, i32* %1, align 4, !ValueID !132
  br label %11, !ValueID !133

11:                                               ; preds = %0
  call void @MarkovIncrement(i64 22, i1 false)
  %12 = call noalias i8* @malloc(i64 1048576) #10, !BlockID !30, !ValueID !134
  br label %13, !ValueID !135

13:                                               ; preds = %11
  call void @MarkovIncrement(i64 23, i1 false)
  %14 = bitcast i8* %12 to [64 x float]*, !BlockID !31, !ValueID !136
  store [64 x float]* %14, [64 x float]** %2, align 8, !ValueID !137
  br label %15, !ValueID !138

15:                                               ; preds = %13
  call void @MarkovIncrement(i64 24, i1 false)
  %16 = call noalias i8* @malloc(i64 1048576) #10, !BlockID !32, !ValueID !139
  br label %17, !ValueID !140

17:                                               ; preds = %15
  call void @MarkovIncrement(i64 25, i1 false)
  %18 = bitcast i8* %16 to [64 x float]*, !BlockID !50, !ValueID !141
  store [64 x float]* %18, [64 x float]** %3, align 8, !ValueID !142
  br label %19, !ValueID !143

19:                                               ; preds = %17
  call void @MarkovIncrement(i64 26, i1 false)
  %20 = call noalias i8* @malloc(i64 1048576) #10, !BlockID !33, !ValueID !144
  br label %21, !ValueID !145

21:                                               ; preds = %19
  call void @MarkovIncrement(i64 27, i1 false)
  %22 = bitcast i8* %20 to [64 x float]*, !BlockID !34, !ValueID !146
  store [64 x float]* %22, [64 x float]** %4, align 8, !ValueID !147
  store i32 0, i32* %5, align 4, !ValueID !148
  br label %23, !ValueID !149

23:                                               ; preds = %64, %21
  call void @MarkovIncrement(i64 28, i1 false)
  %24 = load i32, i32* %5, align 4, !BlockID !35, !ValueID !150
  %25 = icmp slt i32 %24, 64, !ValueID !151
  br i1 %25, label %26, label %67, !ValueID !152

26:                                               ; preds = %23
  call void @MarkovIncrement(i64 29, i1 false)
  store i32 0, i32* %6, align 4, !BlockID !36, !ValueID !153
  br label %27, !ValueID !154

27:                                               ; preds = %60, %26
  call void @MarkovIncrement(i64 30, i1 false)
  %28 = load i32, i32* %6, align 4, !BlockID !37, !ValueID !155
  %29 = icmp slt i32 %28, 64, !ValueID !156
  br i1 %29, label %30, label %63, !ValueID !157

30:                                               ; preds = %27
  call void @MarkovIncrement(i64 31, i1 false)
  br label %31, !BlockID !38, !ValueID !158

31:                                               ; preds = %30
  call void @MarkovIncrement(i64 32, i1 false)
  %32 = call i32 @rand() #10, !BlockID !39, !ValueID !159
  br label %33, !ValueID !160

33:                                               ; preds = %31
  call void @MarkovIncrement(i64 33, i1 false)
  %34 = sitofp i32 %32 to float, !BlockID !2, !ValueID !161
  %35 = load [64 x float]*, [64 x float]** %2, align 8, !ValueID !162
  %36 = load i32, i32* %5, align 4, !ValueID !163
  %37 = sext i32 %36 to i64, !ValueID !164
  %38 = getelementptr inbounds [64 x float], [64 x float]* %35, i64 %37, !ValueID !165
  %39 = load i32, i32* %6, align 4, !ValueID !166
  %40 = sext i32 %39 to i64, !ValueID !167
  %41 = getelementptr inbounds [64 x float], [64 x float]* %38, i64 0, i64 %40, !ValueID !168
  store float %34, float* %41, align 4, !ValueID !169
  br label %42, !ValueID !170

42:                                               ; preds = %33
  call void @MarkovIncrement(i64 34, i1 false)
  %43 = call i32 @rand() #10, !BlockID !40, !ValueID !171
  br label %44, !ValueID !172

44:                                               ; preds = %42
  call void @MarkovIncrement(i64 35, i1 false)
  %45 = sitofp i32 %43 to float, !BlockID !41, !ValueID !173
  %46 = load [64 x float]*, [64 x float]** %3, align 8, !ValueID !174
  %47 = load i32, i32* %5, align 4, !ValueID !175
  %48 = sext i32 %47 to i64, !ValueID !176
  %49 = getelementptr inbounds [64 x float], [64 x float]* %46, i64 %48, !ValueID !177
  %50 = load i32, i32* %6, align 4, !ValueID !178
  %51 = sext i32 %50 to i64, !ValueID !179
  %52 = getelementptr inbounds [64 x float], [64 x float]* %49, i64 0, i64 %51, !ValueID !180
  store float %45, float* %52, align 4, !ValueID !181
  %53 = load [64 x float]*, [64 x float]** %4, align 8, !ValueID !182
  %54 = load i32, i32* %5, align 4, !ValueID !183
  %55 = sext i32 %54 to i64, !ValueID !184
  %56 = getelementptr inbounds [64 x float], [64 x float]* %53, i64 %55, !ValueID !185
  %57 = load i32, i32* %6, align 4, !ValueID !186
  %58 = sext i32 %57 to i64, !ValueID !187
  %59 = getelementptr inbounds [64 x float], [64 x float]* %56, i64 0, i64 %58, !ValueID !188
  store float 0.000000e+00, float* %59, align 4, !ValueID !189
  br label %60, !ValueID !190

60:                                               ; preds = %44
  call void @MarkovIncrement(i64 36, i1 false)
  %61 = load i32, i32* %6, align 4, !BlockID !3, !ValueID !191
  %62 = add nsw i32 %61, 1, !ValueID !192
  store i32 %62, i32* %6, align 4, !ValueID !193
  br label %27, !ValueID !194

63:                                               ; preds = %27
  call void @MarkovIncrement(i64 37, i1 false)
  br label %64, !BlockID !42, !ValueID !195

64:                                               ; preds = %63
  call void @MarkovIncrement(i64 38, i1 false)
  %65 = load i32, i32* %5, align 4, !BlockID !43, !ValueID !196
  %66 = add nsw i32 %65, 1, !ValueID !197
  store i32 %66, i32* %5, align 4, !ValueID !198
  br label %23, !ValueID !199

67:                                               ; preds = %23
  call void @MarkovIncrement(i64 39, i1 false)
  %68 = getelementptr inbounds %class.anon, %class.anon* %8, i32 0, i32 0, !BlockID !44, !ValueID !200
  store [64 x float]** %2, [64 x float]*** %68, align 8, !ValueID !201
  %69 = getelementptr inbounds %class.anon, %class.anon* %8, i32 0, i32 1, !ValueID !202
  store [64 x float]** %3, [64 x float]*** %69, align 8, !ValueID !203
  %70 = getelementptr inbounds %class.anon, %class.anon* %8, i32 0, i32 2, !ValueID !204
  store [64 x float]** %4, [64 x float]*** %70, align 8, !ValueID !205
  br label %71, !ValueID !206

71:                                               ; preds = %67
  call void @MarkovIncrement(i64 40, i1 false)
  call void @"_ZNSt8functionIFvvEEC2IZ4mainE3$_0vvEET_"(%"class.std::function"* %7, %class.anon* byval(%class.anon) align 8 %8), !BlockID !45, !ValueID !207
  br label %72, !ValueID !208

72:                                               ; preds = %71
  call void @MarkovIncrement(i64 41, i1 false)
  br label %73, !BlockID !46, !ValueID !209

73:                                               ; preds = %72
  call void @MarkovIncrement(i64 42, i1 false)
  %74 = invoke double @_Z21__TIMINGLIB_benchmarkRKSt8functionIFvvEE(%"class.std::function"* dereferenceable(32) %7)
          to label %75 unwind label %78, !BlockID !47, !ValueID !210

75:                                               ; preds = %73
  call void @MarkovIncrement(i64 43, i1 false)
  br label %76, !BlockID !48, !ValueID !211

76:                                               ; preds = %75
  call void @MarkovIncrement(i64 44, i1 false)
  call void @_ZNSt8functionIFvvEED2Ev(%"class.std::function"* %7) #10, !BlockID !49, !ValueID !212
  br label %77, !ValueID !213

77:                                               ; preds = %76
  call void @MarkovIncrement(i64 45, i1 false)
  call void @MarkovDestroy()
  ret i32 0, !BlockID !55, !ValueID !214

78:                                               ; preds = %73
  %79 = landingpad { i8*, i32 }
          cleanup, !ValueID !215
  call void @MarkovIncrement(i64 46, i1 false)
  %80 = extractvalue { i8*, i32 } %79, 0, !BlockID !56, !ValueID !216
  store i8* %80, i8** %9, align 8, !ValueID !217
  %81 = extractvalue { i8*, i32 } %79, 1, !ValueID !218
  store i32 %81, i32* %10, align 4, !ValueID !219
  br label %82, !ValueID !220

82:                                               ; preds = %78
  call void @MarkovIncrement(i64 47, i1 false)
  call void @_ZNSt8functionIFvvEED2Ev(%"class.std::function"* %7) #10, !BlockID !57, !ValueID !221
  br label %83, !ValueID !222

83:                                               ; preds = %82
  call void @MarkovIncrement(i64 48, i1 false)
  br label %84, !BlockID !58, !ValueID !223

84:                                               ; preds = %83
  call void @MarkovIncrement(i64 49, i1 false)
  %85 = load i8*, i8** %9, align 8, !BlockID !59, !ValueID !224
  %86 = load i32, i32* %10, align 4, !ValueID !225
  %87 = insertvalue { i8*, i32 } undef, i8* %85, 0, !ValueID !226
  %88 = insertvalue { i8*, i32 } %87, i32 %86, 1, !ValueID !227
  call void @MarkovDestroy()
  resume { i8*, i32 } %88, !ValueID !228
}

declare dso_local i32 @__gxx_personality_v0(...)

; Function Attrs: nounwind
declare !ValueID !229 dso_local noalias i8* @malloc(i64) #1

; Function Attrs: nounwind
declare !ValueID !230 dso_local i32 @rand() #1

; Function Attrs: noinline optnone uwtable
define internal void @"_ZNSt8functionIFvvEEC2IZ4mainE3$_0vvEET_"(%"class.std::function"*, %class.anon* byval(%class.anon) align 8) unnamed_addr #3 align 2 personality i8* bitcast (i32 (...)* @__gxx_personality_v0 to i8*) !ValueID !231 !ArgId0 !232 !ArgId1 !233 {
  call void @MarkovIncrement(i64 50, i1 true)
  %3 = alloca %"class.std::function"*, align 8, !BlockID !60, !ValueID !234
  %4 = alloca i8*, !ValueID !235
  %5 = alloca i32, !ValueID !236
  store %"class.std::function"* %0, %"class.std::function"** %3, align 8, !ValueID !237
  %6 = load %"class.std::function"*, %"class.std::function"** %3, align 8, !ValueID !238
  %7 = bitcast %"class.std::function"* %6 to %"struct.std::_Maybe_unary_or_binary_function"*, !ValueID !239
  %8 = bitcast %"class.std::function"* %6 to %"class.std::_Function_base"*, !ValueID !240
  br label %9, !ValueID !241

9:                                                ; preds = %2
  call void @MarkovIncrement(i64 51, i1 false)
  call void @_ZNSt14_Function_baseC2Ev(%"class.std::_Function_base"* %8), !BlockID !61, !ValueID !242
  br label %10, !ValueID !243

10:                                               ; preds = %9
  call void @MarkovIncrement(i64 52, i1 false)
  br label %11, !BlockID !52, !ValueID !244

11:                                               ; preds = %10
  call void @MarkovIncrement(i64 53, i1 false)
  %12 = invoke zeroext i1 @"_ZNSt14_Function_base13_Base_managerIZ4mainE3$_0E21_M_not_empty_functionIS1_EEbRKT_"(%class.anon* dereferenceable(24) %1)
          to label %13 unwind label %25, !BlockID !62, !ValueID !245

13:                                               ; preds = %11
  call void @MarkovIncrement(i64 54, i1 false)
  br i1 %12, label %14, label %32, !BlockID !53, !ValueID !246

14:                                               ; preds = %13
  call void @MarkovIncrement(i64 55, i1 false)
  %15 = bitcast %"class.std::function"* %6 to %"class.std::_Function_base"*, !BlockID !63, !ValueID !247
  %16 = getelementptr inbounds %"class.std::_Function_base", %"class.std::_Function_base"* %15, i32 0, i32 0, !ValueID !248
  br label %17, !ValueID !249

17:                                               ; preds = %14
  call void @MarkovIncrement(i64 56, i1 false)
  %18 = call dereferenceable(24) %class.anon* @"_ZSt4moveIRZ4mainE3$_0EONSt16remove_referenceIT_E4typeEOS3_"(%class.anon* dereferenceable(24) %1) #10, !BlockID !54, !ValueID !250
  br label %19, !ValueID !251

19:                                               ; preds = %17
  call void @MarkovIncrement(i64 57, i1 false)
  br label %20, !BlockID !64, !ValueID !252

20:                                               ; preds = %19
  call void @MarkovIncrement(i64 58, i1 false)
  invoke void @"_ZNSt14_Function_base13_Base_managerIZ4mainE3$_0E15_M_init_functorERSt9_Any_dataOS1_"(%"union.std::_Any_data"* dereferenceable(16) %16, %class.anon* dereferenceable(24) %18)
          to label %21 unwind label %25, !BlockID !65, !ValueID !253

21:                                               ; preds = %20
  call void @MarkovIncrement(i64 59, i1 false)
  %22 = getelementptr inbounds %"class.std::function", %"class.std::function"* %6, i32 0, i32 1, !BlockID !66, !ValueID !254
  store void (%"union.std::_Any_data"*)* @"_ZNSt17_Function_handlerIFvvEZ4mainE3$_0E9_M_invokeERKSt9_Any_data", void (%"union.std::_Any_data"*)** %22, align 8, !ValueID !255
  %23 = bitcast %"class.std::function"* %6 to %"class.std::_Function_base"*, !ValueID !256
  %24 = getelementptr inbounds %"class.std::_Function_base", %"class.std::_Function_base"* %23, i32 0, i32 1, !ValueID !257
  store i1 (%"union.std::_Any_data"*, %"union.std::_Any_data"*, i32)* @"_ZNSt14_Function_base13_Base_managerIZ4mainE3$_0E10_M_managerERSt9_Any_dataRKS3_St18_Manager_operation", i1 (%"union.std::_Any_data"*, %"union.std::_Any_data"*, i32)** %24, align 8, !ValueID !258
  br label %32, !ValueID !259

25:                                               ; preds = %20, %11
  %26 = landingpad { i8*, i32 }
          cleanup, !ValueID !260
  call void @MarkovIncrement(i64 60, i1 false)
  %27 = extractvalue { i8*, i32 } %26, 0, !BlockID !67, !ValueID !261
  store i8* %27, i8** %4, align 8, !ValueID !262
  %28 = extractvalue { i8*, i32 } %26, 1, !ValueID !263
  store i32 %28, i32* %5, align 4, !ValueID !264
  %29 = bitcast %"class.std::function"* %6 to %"class.std::_Function_base"*, !ValueID !265
  br label %30, !ValueID !266

30:                                               ; preds = %25
  call void @MarkovIncrement(i64 61, i1 false)
  call void @_ZNSt14_Function_baseD2Ev(%"class.std::_Function_base"* %29) #10, !BlockID !68, !ValueID !267
  br label %31, !ValueID !268

31:                                               ; preds = %30
  call void @MarkovIncrement(i64 62, i1 false)
  br label %33, !BlockID !69, !ValueID !269

32:                                               ; preds = %21, %13
  call void @MarkovIncrement(i64 63, i1 false)
  ret void, !BlockID !70, !ValueID !270

33:                                               ; preds = %31
  call void @MarkovIncrement(i64 64, i1 false)
  %34 = load i8*, i8** %4, align 8, !BlockID !71, !ValueID !271
  %35 = load i32, i32* %5, align 4, !ValueID !272
  %36 = insertvalue { i8*, i32 } undef, i8* %34, 0, !ValueID !273
  %37 = insertvalue { i8*, i32 } %36, i32 %35, 1, !ValueID !274
  resume { i8*, i32 } %37, !ValueID !275
}

; Function Attrs: noinline optnone uwtable
define internal double @_Z21__TIMINGLIB_benchmarkRKSt8functionIFvvEE(%"class.std::function"* dereferenceable(32)) #3 comdat !ValueID !276 !ArgId0 !277 {
  call void @MarkovIncrement(i64 65, i1 true)
  %2 = alloca %"class.std::function"*, align 8, !BlockID !72, !ValueID !278
  %3 = alloca double, align 8, !ValueID !279
  %4 = alloca i64, align 8, !ValueID !280
  %5 = alloca i64, align 8, !ValueID !281
  %6 = alloca double, align 8, !ValueID !282
  store %"class.std::function"* %0, %"class.std::function"** %2, align 8, !ValueID !283
  store double 1.000000e+09, double* %3, align 8, !ValueID !284
  store i64 0, i64* %4, align 8, !ValueID !285
  br label %7, !ValueID !286

7:                                                ; preds = %36, %1
  call void @MarkovIncrement(i64 66, i1 false)
  %8 = load i64, i64* %4, align 8, !BlockID !73, !ValueID !287
  %9 = icmp ult i64 %8, 1, !ValueID !288
  br i1 %9, label %10, label %39, !ValueID !289

10:                                               ; preds = %7
  call void @MarkovIncrement(i64 67, i1 false)
  br label %11, !BlockID !74, !ValueID !290

11:                                               ; preds = %10
  call void @MarkovIncrement(i64 68, i1 false)
  call void @_Z22__TIMINGLIB_start_timev(), !BlockID !75, !ValueID !291
  br label %12, !ValueID !292

12:                                               ; preds = %11
  call void @MarkovIncrement(i64 69, i1 false)
  store i64 0, i64* %5, align 8, !BlockID !76, !ValueID !293
  br label %13, !ValueID !294

13:                                               ; preds = %20, %12
  call void @MarkovIncrement(i64 70, i1 false)
  %14 = load i64, i64* %5, align 8, !BlockID !77, !ValueID !295
  %15 = icmp ult i64 %14, 1, !ValueID !296
  br i1 %15, label %16, label %23, !ValueID !297

16:                                               ; preds = %13
  call void @MarkovIncrement(i64 71, i1 false)
  %17 = load %"class.std::function"*, %"class.std::function"** %2, align 8, !BlockID !78, !ValueID !298
  br label %18, !ValueID !299

18:                                               ; preds = %16
  call void @MarkovIncrement(i64 72, i1 false)
  call void @_ZNKSt8functionIFvvEEclEv(%"class.std::function"* %17), !BlockID !79, !ValueID !300
  br label %19, !ValueID !301

19:                                               ; preds = %18
  call void @MarkovIncrement(i64 73, i1 false)
  br label %20, !BlockID !80, !ValueID !302

20:                                               ; preds = %19
  call void @MarkovIncrement(i64 74, i1 false)
  %21 = load i64, i64* %5, align 8, !BlockID !81, !ValueID !303
  %22 = add i64 %21, 1, !ValueID !304
  store i64 %22, i64* %5, align 8, !ValueID !305
  br label %13, !ValueID !306

23:                                               ; preds = %13
  call void @MarkovIncrement(i64 75, i1 false)
  br label %24, !BlockID !82, !ValueID !307

24:                                               ; preds = %23
  call void @MarkovIncrement(i64 76, i1 false)
  %25 = call double @_Z20__TIMINGLIB_end_timev(), !BlockID !83, !ValueID !308
  br label %26, !ValueID !309

26:                                               ; preds = %24
  call void @MarkovIncrement(i64 77, i1 false)
  store double %25, double* %6, align 8, !BlockID !84, !ValueID !310
  %27 = load double, double* %3, align 8, !ValueID !311
  %28 = load double, double* %6, align 8, !ValueID !312
  %29 = fcmp ogt double %27, %28, !ValueID !313
  br i1 %29, label %30, label %32, !ValueID !314

30:                                               ; preds = %26
  call void @MarkovIncrement(i64 78, i1 false)
  %31 = load double, double* %6, align 8, !BlockID !85, !ValueID !315
  br label %34, !ValueID !316

32:                                               ; preds = %26
  call void @MarkovIncrement(i64 79, i1 false)
  %33 = load double, double* %3, align 8, !BlockID !86, !ValueID !317
  br label %34, !ValueID !318

34:                                               ; preds = %32, %30
  %35 = phi double [ %31, %30 ], [ %33, %32 ], !ValueID !319
  call void @MarkovIncrement(i64 80, i1 false)
  store double %35, double* %3, align 8, !BlockID !87, !ValueID !320
  br label %36, !ValueID !321

36:                                               ; preds = %34
  call void @MarkovIncrement(i64 81, i1 false)
  %37 = load i64, i64* %4, align 8, !BlockID !88, !ValueID !322
  %38 = add i64 %37, 1, !ValueID !323
  store i64 %38, i64* %4, align 8, !ValueID !324
  br label %7, !ValueID !325

39:                                               ; preds = %7
  call void @MarkovIncrement(i64 82, i1 false)
  %40 = load double, double* %3, align 8, !BlockID !89, !ValueID !326
  %41 = fdiv double %40, 1.000000e+00, !ValueID !327
  br label %42, !ValueID !328

42:                                               ; preds = %39
  call void @MarkovIncrement(i64 83, i1 false)
  %43 = call i32 (i8*, ...) @printf(i8* getelementptr inbounds ([27 x i8], [27 x i8]* @.str, i64 0, i64 0), double %41), !BlockID !90, !ValueID !329
  br label %44, !ValueID !330

44:                                               ; preds = %42
  call void @MarkovIncrement(i64 84, i1 false)
  %45 = load double, double* %3, align 8, !BlockID !91, !ValueID !331
  %46 = fdiv double %45, 1.000000e+00, !ValueID !332
  ret double %46, !ValueID !333
}

; Function Attrs: noinline nounwind optnone uwtable
define internal void @_ZNSt8functionIFvvEED2Ev(%"class.std::function"*) unnamed_addr #0 comdat align 2 !ValueID !334 !ArgId0 !335 {
  call void @MarkovIncrement(i64 85, i1 true)
  %2 = alloca %"class.std::function"*, align 8, !BlockID !92, !ValueID !336
  store %"class.std::function"* %0, %"class.std::function"** %2, align 8, !ValueID !337
  %3 = load %"class.std::function"*, %"class.std::function"** %2, align 8, !ValueID !338
  %4 = bitcast %"class.std::function"* %3 to %"class.std::_Function_base"*, !ValueID !339
  br label %5, !ValueID !340

5:                                                ; preds = %1
  call void @MarkovIncrement(i64 86, i1 false)
  call void @_ZNSt14_Function_baseD2Ev(%"class.std::_Function_base"* %4) #10, !BlockID !93, !ValueID !341
  br label %6, !ValueID !342

6:                                                ; preds = %5
  call void @MarkovIncrement(i64 87, i1 false)
  ret void, !BlockID !94, !ValueID !343
}

; Function Attrs: noinline nounwind optnone uwtable
define internal void @_ZNSt14_Function_baseD2Ev(%"class.std::_Function_base"*) unnamed_addr #0 comdat align 2 personality i8* bitcast (i32 (...)* @__gxx_personality_v0 to i8*) !ValueID !344 !ArgId0 !345 {
  call void @MarkovIncrement(i64 88, i1 true)
  %2 = alloca %"class.std::_Function_base"*, align 8, !BlockID !95, !ValueID !346
  store %"class.std::_Function_base"* %0, %"class.std::_Function_base"** %2, align 8, !ValueID !347
  %3 = load %"class.std::_Function_base"*, %"class.std::_Function_base"** %2, align 8, !ValueID !348
  %4 = getelementptr inbounds %"class.std::_Function_base", %"class.std::_Function_base"* %3, i32 0, i32 1, !ValueID !349
  %5 = load i1 (%"union.std::_Any_data"*, %"union.std::_Any_data"*, i32)*, i1 (%"union.std::_Any_data"*, %"union.std::_Any_data"*, i32)** %4, align 8, !ValueID !350
  %6 = icmp ne i1 (%"union.std::_Any_data"*, %"union.std::_Any_data"*, i32)* %5, null, !ValueID !351
  br i1 %6, label %7, label %15, !ValueID !352

7:                                                ; preds = %1
  call void @MarkovIncrement(i64 89, i1 false)
  %8 = getelementptr inbounds %"class.std::_Function_base", %"class.std::_Function_base"* %3, i32 0, i32 1, !BlockID !96, !ValueID !353
  %9 = load i1 (%"union.std::_Any_data"*, %"union.std::_Any_data"*, i32)*, i1 (%"union.std::_Any_data"*, %"union.std::_Any_data"*, i32)** %8, align 8, !ValueID !354
  %10 = getelementptr inbounds %"class.std::_Function_base", %"class.std::_Function_base"* %3, i32 0, i32 0, !ValueID !355
  %11 = getelementptr inbounds %"class.std::_Function_base", %"class.std::_Function_base"* %3, i32 0, i32 0, !ValueID !356
  br label %12, !ValueID !357

12:                                               ; preds = %7
  call void @MarkovIncrement(i64 90, i1 false)
  %13 = invoke zeroext i1 %9(%"union.std::_Any_data"* dereferenceable(16) %10, %"union.std::_Any_data"* dereferenceable(16) %11, i32 3)
          to label %14 unwind label %16, !BlockID !97, !ValueID !358

14:                                               ; preds = %12
  call void @MarkovIncrement(i64 91, i1 false)
  br label %15, !BlockID !98, !ValueID !359

15:                                               ; preds = %14, %1
  call void @MarkovIncrement(i64 92, i1 false)
  ret void, !BlockID !99, !ValueID !360

16:                                               ; preds = %12
  %17 = landingpad { i8*, i32 }
          catch i8* null, !ValueID !361
  call void @MarkovIncrement(i64 93, i1 false)
  %18 = extractvalue { i8*, i32 } %17, 0, !BlockID !100, !ValueID !362
  br label %19, !ValueID !363

19:                                               ; preds = %16
  call void @MarkovIncrement(i64 94, i1 false)
  call void @__clang_call_terminate(i8* %18) #11, !BlockID !101, !ValueID !364
  br label %20, !ValueID !365

20:                                               ; preds = %19
  call void @MarkovIncrement(i64 95, i1 false)
  unreachable, !BlockID !102, !ValueID !366
}

; Function Attrs: noinline noreturn nounwind
define internal void @__clang_call_terminate(i8*) #4 comdat !ValueID !367 !ArgId0 !368 {
  call void @MarkovIncrement(i64 96, i1 true)
  br label %2, !BlockID !103, !ValueID !369

2:                                                ; preds = %1
  call void @MarkovIncrement(i64 97, i1 false)
  %3 = call i8* @__cxa_begin_catch(i8* %0) #10, !BlockID !104, !ValueID !370
  br label %4, !ValueID !371

4:                                                ; preds = %2
  call void @MarkovIncrement(i64 98, i1 false)
  br label %5, !BlockID !105, !ValueID !372

5:                                                ; preds = %4
  call void @MarkovIncrement(i64 99, i1 false)
  call void @_ZSt9terminatev() #11, !BlockID !106, !ValueID !373
  br label %6, !ValueID !374

6:                                                ; preds = %5
  call void @MarkovIncrement(i64 100, i1 false)
  unreachable, !BlockID !107, !ValueID !375
}

declare !ValueID !376 dso_local i8* @__cxa_begin_catch(i8*)

declare !ValueID !377 dso_local void @_ZSt9terminatev()

; Function Attrs: noinline optnone uwtable
define internal void @_ZNKSt8functionIFvvEEclEv(%"class.std::function"*) #3 comdat align 2 !ValueID !378 !ArgId0 !379 {
  call void @MarkovIncrement(i64 101, i1 true)
  %2 = alloca %"class.std::function"*, align 8, !BlockID !108, !ValueID !380
  store %"class.std::function"* %0, %"class.std::function"** %2, align 8, !ValueID !381
  %3 = load %"class.std::function"*, %"class.std::function"** %2, align 8, !ValueID !382
  %4 = bitcast %"class.std::function"* %3 to %"class.std::_Function_base"*, !ValueID !383
  br label %5, !ValueID !384

5:                                                ; preds = %1
  call void @MarkovIncrement(i64 102, i1 false)
  %6 = call zeroext i1 @_ZNKSt14_Function_base8_M_emptyEv(%"class.std::_Function_base"* %4), !BlockID !109, !ValueID !385
  br label %7, !ValueID !386

7:                                                ; preds = %5
  call void @MarkovIncrement(i64 103, i1 false)
  br i1 %6, label %8, label %11, !BlockID !110, !ValueID !387

8:                                                ; preds = %7
  call void @MarkovIncrement(i64 104, i1 false)
  br label %9, !BlockID !111, !ValueID !388

9:                                                ; preds = %8
  call void @MarkovIncrement(i64 105, i1 false)
  call void @_ZSt25__throw_bad_function_callv() #12, !BlockID !112, !ValueID !389
  br label %10, !ValueID !390

10:                                               ; preds = %9
  call void @MarkovIncrement(i64 106, i1 false)
  unreachable, !BlockID !113, !ValueID !391

11:                                               ; preds = %7
  call void @MarkovIncrement(i64 107, i1 false)
  %12 = getelementptr inbounds %"class.std::function", %"class.std::function"* %3, i32 0, i32 1, !BlockID !114, !ValueID !392
  %13 = load void (%"union.std::_Any_data"*)*, void (%"union.std::_Any_data"*)** %12, align 8, !ValueID !393
  %14 = bitcast %"class.std::function"* %3 to %"class.std::_Function_base"*, !ValueID !394
  %15 = getelementptr inbounds %"class.std::_Function_base", %"class.std::_Function_base"* %14, i32 0, i32 0, !ValueID !395
  br label %16, !ValueID !396

16:                                               ; preds = %11
  call void @MarkovIncrement(i64 108, i1 false)
  call void %13(%"union.std::_Any_data"* dereferenceable(16) %15), !BlockID !115, !ValueID !397
  br label %17, !ValueID !398

17:                                               ; preds = %16
  call void @MarkovIncrement(i64 109, i1 false)
  ret void, !BlockID !116, !ValueID !399
}

declare !ValueID !400 dso_local i32 @printf(i8*, ...) #5

; Function Attrs: noinline nounwind optnone uwtable
define internal zeroext i1 @_ZNKSt14_Function_base8_M_emptyEv(%"class.std::_Function_base"*) #0 comdat align 2 !ValueID !401 !ArgId0 !402 {
  call void @MarkovIncrement(i64 110, i1 true)
  %2 = alloca %"class.std::_Function_base"*, align 8, !BlockID !117, !ValueID !403
  store %"class.std::_Function_base"* %0, %"class.std::_Function_base"** %2, align 8, !ValueID !404
  %3 = load %"class.std::_Function_base"*, %"class.std::_Function_base"** %2, align 8, !ValueID !405
  %4 = getelementptr inbounds %"class.std::_Function_base", %"class.std::_Function_base"* %3, i32 0, i32 1, !ValueID !406
  %5 = load i1 (%"union.std::_Any_data"*, %"union.std::_Any_data"*, i32)*, i1 (%"union.std::_Any_data"*, %"union.std::_Any_data"*, i32)** %4, align 8, !ValueID !407
  %6 = icmp ne i1 (%"union.std::_Any_data"*, %"union.std::_Any_data"*, i32)* %5, null, !ValueID !408
  %7 = xor i1 %6, true, !ValueID !409
  ret i1 %7, !ValueID !410
}

; Function Attrs: noreturn
declare !ValueID !411 dso_local void @_ZSt25__throw_bad_function_callv() #6

; Function Attrs: noinline nounwind optnone uwtable
define internal void @_ZNSt14_Function_baseC2Ev(%"class.std::_Function_base"*) unnamed_addr #0 comdat align 2 !ValueID !412 !ArgId0 !413 {
  call void @MarkovIncrement(i64 111, i1 true)
  %2 = alloca %"class.std::_Function_base"*, align 8, !BlockID !118, !ValueID !414
  store %"class.std::_Function_base"* %0, %"class.std::_Function_base"** %2, align 8, !ValueID !415
  %3 = load %"class.std::_Function_base"*, %"class.std::_Function_base"** %2, align 8, !ValueID !416
  %4 = getelementptr inbounds %"class.std::_Function_base", %"class.std::_Function_base"* %3, i32 0, i32 0, !ValueID !417
  %5 = getelementptr inbounds %"class.std::_Function_base", %"class.std::_Function_base"* %3, i32 0, i32 1, !ValueID !418
  store i1 (%"union.std::_Any_data"*, %"union.std::_Any_data"*, i32)* null, i1 (%"union.std::_Any_data"*, %"union.std::_Any_data"*, i32)** %5, align 8, !ValueID !419
  ret void, !ValueID !420
}

; Function Attrs: noinline nounwind optnone uwtable
define internal zeroext i1 @"_ZNSt14_Function_base13_Base_managerIZ4mainE3$_0E21_M_not_empty_functionIS1_EEbRKT_"(%class.anon* dereferenceable(24)) #0 align 2 !ValueID !421 !ArgId0 !422 {
  call void @MarkovIncrement(i64 112, i1 true)
  %2 = alloca %class.anon*, align 8, !BlockID !119, !ValueID !423
  store %class.anon* %0, %class.anon** %2, align 8, !ValueID !424
  ret i1 true, !ValueID !425
}

; Function Attrs: noinline nounwind optnone uwtable
define internal dereferenceable(24) %class.anon* @"_ZSt4moveIRZ4mainE3$_0EONSt16remove_referenceIT_E4typeEOS3_"(%class.anon* dereferenceable(24)) #0 !ValueID !426 !ArgId0 !427 {
  call void @MarkovIncrement(i64 113, i1 true)
  %2 = alloca %class.anon*, align 8, !BlockID !120, !ValueID !428
  store %class.anon* %0, %class.anon** %2, align 8, !ValueID !429
  %3 = load %class.anon*, %class.anon** %2, align 8, !ValueID !430
  ret %class.anon* %3, !ValueID !431
}

; Function Attrs: noinline optnone uwtable
define internal void @"_ZNSt14_Function_base13_Base_managerIZ4mainE3$_0E15_M_init_functorERSt9_Any_dataOS1_"(%"union.std::_Any_data"* dereferenceable(16), %class.anon* dereferenceable(24)) #3 align 2 !ValueID !432 !ArgId0 !433 !ArgId1 !434 {
  call void @MarkovIncrement(i64 114, i1 true)
  %3 = alloca %"union.std::_Any_data"*, align 8, !BlockID !121, !ValueID !435
  %4 = alloca %class.anon*, align 8, !ValueID !436
  %5 = alloca %"struct.std::_Maybe_unary_or_binary_function", align 1, !ValueID !437
  store %"union.std::_Any_data"* %0, %"union.std::_Any_data"** %3, align 8, !ValueID !438
  store %class.anon* %1, %class.anon** %4, align 8, !ValueID !439
  %6 = load %"union.std::_Any_data"*, %"union.std::_Any_data"** %3, align 8, !ValueID !440
  %7 = load %class.anon*, %class.anon** %4, align 8, !ValueID !441
  br label %8, !ValueID !442

8:                                                ; preds = %2
  call void @MarkovIncrement(i64 115, i1 false)
  %9 = call dereferenceable(24) %class.anon* @"_ZSt4moveIRZ4mainE3$_0EONSt16remove_referenceIT_E4typeEOS3_"(%class.anon* dereferenceable(24) %7) #10, !BlockID !122, !ValueID !443
  br label %10, !ValueID !444

10:                                               ; preds = %8
  call void @MarkovIncrement(i64 116, i1 false)
  br label %11, !BlockID !123, !ValueID !445

11:                                               ; preds = %10
  call void @MarkovIncrement(i64 117, i1 false)
  call void @"_ZNSt14_Function_base13_Base_managerIZ4mainE3$_0E15_M_init_functorERSt9_Any_dataOS1_St17integral_constantIbLb0EE"(%"union.std::_Any_data"* dereferenceable(16) %6, %class.anon* dereferenceable(24) %9), !BlockID !124, !ValueID !446
  br label %12, !ValueID !447

12:                                               ; preds = %11
  call void @MarkovIncrement(i64 118, i1 false)
  ret void, !BlockID !125, !ValueID !448
}

; Function Attrs: noinline optnone uwtable
define internal void @"_ZNSt17_Function_handlerIFvvEZ4mainE3$_0E9_M_invokeERKSt9_Any_data"(%"union.std::_Any_data"* dereferenceable(16)) #3 align 2 !ValueID !449 !ArgId0 !450 {
  call void @MarkovIncrement(i64 119, i1 true)
  %2 = alloca %"union.std::_Any_data"*, align 8, !BlockID !126, !ValueID !451
  store %"union.std::_Any_data"* %0, %"union.std::_Any_data"** %2, align 8, !ValueID !452
  %3 = load %"union.std::_Any_data"*, %"union.std::_Any_data"** %2, align 8, !ValueID !453
  br label %4, !ValueID !454

4:                                                ; preds = %1
  call void @MarkovIncrement(i64 120, i1 false)
  %5 = call %class.anon* @"_ZNSt14_Function_base13_Base_managerIZ4mainE3$_0E14_M_get_pointerERKSt9_Any_data"(%"union.std::_Any_data"* dereferenceable(16) %3), !BlockID !127, !ValueID !455
  br label %6, !ValueID !456

6:                                                ; preds = %4
  call void @MarkovIncrement(i64 121, i1 false)
  br label %7, !BlockID !128, !ValueID !457

7:                                                ; preds = %6
  call void @MarkovIncrement(i64 122, i1 false)
  call void @"_ZZ4mainENK3$_0clEv"(%class.anon* %5), !BlockID !129, !ValueID !458
  br label %8, !ValueID !459

8:                                                ; preds = %7
  call void @MarkovIncrement(i64 123, i1 false)
  ret void, !BlockID !130, !ValueID !460
}

; Function Attrs: noinline optnone uwtable
define internal zeroext i1 @"_ZNSt14_Function_base13_Base_managerIZ4mainE3$_0E10_M_managerERSt9_Any_dataRKS3_St18_Manager_operation"(%"union.std::_Any_data"* dereferenceable(16), %"union.std::_Any_data"* dereferenceable(16), i32) #3 align 2 !ValueID !461 !ArgId0 !462 !ArgId1 !463 !ArgId2 !464 {
  call void @MarkovIncrement(i64 124, i1 true)
  %4 = alloca %"union.std::_Any_data"*, align 8, !BlockID !131, !ValueID !465
  %5 = alloca %"union.std::_Any_data"*, align 8, !ValueID !466
  %6 = alloca i32, align 4, !ValueID !467
  %7 = alloca %"struct.std::_Maybe_unary_or_binary_function", align 1, !ValueID !468
  %8 = alloca %"struct.std::_Maybe_unary_or_binary_function", align 1, !ValueID !469
  store %"union.std::_Any_data"* %0, %"union.std::_Any_data"** %4, align 8, !ValueID !470
  store %"union.std::_Any_data"* %1, %"union.std::_Any_data"** %5, align 8, !ValueID !471
  store i32 %2, i32* %6, align 4, !ValueID !472
  %9 = load i32, i32* %6, align 4, !ValueID !473
  switch i32 %9, label %33 [
    i32 0, label %10
    i32 1, label %15
    i32 2, label %24
    i32 3, label %29
  ], !ValueID !474

10:                                               ; preds = %3
  call void @MarkovIncrement(i64 125, i1 false)
  %11 = load %"union.std::_Any_data"*, %"union.std::_Any_data"** %4, align 8, !BlockID !132, !ValueID !475
  br label %12, !ValueID !476

12:                                               ; preds = %10
  call void @MarkovIncrement(i64 126, i1 false)
  %13 = call dereferenceable(8) %"class.std::type_info"** @_ZNSt9_Any_data9_M_accessIPKSt9type_infoEERT_v(%"union.std::_Any_data"* %11), !BlockID !133, !ValueID !477
  br label %14, !ValueID !478

14:                                               ; preds = %12
  call void @MarkovIncrement(i64 127, i1 false)
  store %"class.std::type_info"* bitcast ({ i8*, i8* }* @"_ZTIZ4mainE3$_0" to %"class.std::type_info"*), %"class.std::type_info"** %13, align 8, !BlockID !134, !ValueID !479
  br label %33, !ValueID !480

15:                                               ; preds = %3
  call void @MarkovIncrement(i64 128, i1 false)
  %16 = load %"union.std::_Any_data"*, %"union.std::_Any_data"** %5, align 8, !BlockID !229, !ValueID !481
  br label %17, !ValueID !482

17:                                               ; preds = %15
  call void @MarkovIncrement(i64 129, i1 false)
  %18 = call %class.anon* @"_ZNSt14_Function_base13_Base_managerIZ4mainE3$_0E14_M_get_pointerERKSt9_Any_data"(%"union.std::_Any_data"* dereferenceable(16) %16), !BlockID !135, !ValueID !483
  br label %19, !ValueID !484

19:                                               ; preds = %17
  call void @MarkovIncrement(i64 130, i1 false)
  %20 = load %"union.std::_Any_data"*, %"union.std::_Any_data"** %4, align 8, !BlockID !136, !ValueID !485
  br label %21, !ValueID !486

21:                                               ; preds = %19
  call void @MarkovIncrement(i64 131, i1 false)
  %22 = call dereferenceable(8) %class.anon** @"_ZNSt9_Any_data9_M_accessIPZ4mainE3$_0EERT_v"(%"union.std::_Any_data"* %20), !BlockID !137, !ValueID !487
  br label %23, !ValueID !488

23:                                               ; preds = %21
  call void @MarkovIncrement(i64 132, i1 false)
  store %class.anon* %18, %class.anon** %22, align 8, !BlockID !138, !ValueID !489
  br label %33, !ValueID !490

24:                                               ; preds = %3
  call void @MarkovIncrement(i64 133, i1 false)
  %25 = load %"union.std::_Any_data"*, %"union.std::_Any_data"** %4, align 8, !BlockID !139, !ValueID !491
  %26 = load %"union.std::_Any_data"*, %"union.std::_Any_data"** %5, align 8, !ValueID !492
  br label %27, !ValueID !493

27:                                               ; preds = %24
  call void @MarkovIncrement(i64 134, i1 false)
  call void @"_ZNSt14_Function_base13_Base_managerIZ4mainE3$_0E8_M_cloneERSt9_Any_dataRKS3_St17integral_constantIbLb0EE"(%"union.std::_Any_data"* dereferenceable(16) %25, %"union.std::_Any_data"* dereferenceable(16) %26), !BlockID !140, !ValueID !494
  br label %28, !ValueID !495

28:                                               ; preds = %27
  call void @MarkovIncrement(i64 135, i1 false)
  br label %33, !BlockID !141, !ValueID !496

29:                                               ; preds = %3
  call void @MarkovIncrement(i64 136, i1 false)
  %30 = load %"union.std::_Any_data"*, %"union.std::_Any_data"** %4, align 8, !BlockID !142, !ValueID !497
  br label %31, !ValueID !498

31:                                               ; preds = %29
  call void @MarkovIncrement(i64 137, i1 false)
  call void @"_ZNSt14_Function_base13_Base_managerIZ4mainE3$_0E10_M_destroyERSt9_Any_dataSt17integral_constantIbLb0EE"(%"union.std::_Any_data"* dereferenceable(16) %30), !BlockID !143, !ValueID !499
  br label %32, !ValueID !500

32:                                               ; preds = %31
  call void @MarkovIncrement(i64 138, i1 false)
  br label %33, !BlockID !144, !ValueID !501

33:                                               ; preds = %32, %28, %23, %14, %3
  call void @MarkovIncrement(i64 139, i1 false)
  ret i1 false, !BlockID !145, !ValueID !502
}

; Function Attrs: noinline nounwind optnone uwtable
define internal dereferenceable(8) %"class.std::type_info"** @_ZNSt9_Any_data9_M_accessIPKSt9type_infoEERT_v(%"union.std::_Any_data"*) #0 comdat align 2 !ValueID !503 !ArgId0 !504 {
  call void @MarkovIncrement(i64 140, i1 true)
  %2 = alloca %"union.std::_Any_data"*, align 8, !BlockID !146, !ValueID !505
  store %"union.std::_Any_data"* %0, %"union.std::_Any_data"** %2, align 8, !ValueID !506
  %3 = load %"union.std::_Any_data"*, %"union.std::_Any_data"** %2, align 8, !ValueID !507
  br label %4, !ValueID !508

4:                                                ; preds = %1
  call void @MarkovIncrement(i64 141, i1 false)
  %5 = call i8* @_ZNSt9_Any_data9_M_accessEv(%"union.std::_Any_data"* %3), !BlockID !147, !ValueID !509
  br label %6, !ValueID !510

6:                                                ; preds = %4
  call void @MarkovIncrement(i64 142, i1 false)
  %7 = bitcast i8* %5 to %"class.std::type_info"**, !BlockID !148, !ValueID !511
  ret %"class.std::type_info"** %7, !ValueID !512
}

; Function Attrs: noinline optnone uwtable
define internal %class.anon* @"_ZNSt14_Function_base13_Base_managerIZ4mainE3$_0E14_M_get_pointerERKSt9_Any_data"(%"union.std::_Any_data"* dereferenceable(16)) #3 align 2 !ValueID !513 !ArgId0 !514 {
  call void @MarkovIncrement(i64 143, i1 true)
  %2 = alloca %"union.std::_Any_data"*, align 8, !BlockID !149, !ValueID !515
  %3 = alloca %class.anon*, align 8, !ValueID !516
  store %"union.std::_Any_data"* %0, %"union.std::_Any_data"** %2, align 8, !ValueID !517
  %4 = load %"union.std::_Any_data"*, %"union.std::_Any_data"** %2, align 8, !ValueID !518
  br label %5, !ValueID !519

5:                                                ; preds = %1
  call void @MarkovIncrement(i64 144, i1 false)
  %6 = call dereferenceable(8) %class.anon** @"_ZNKSt9_Any_data9_M_accessIPZ4mainE3$_0EERKT_v"(%"union.std::_Any_data"* %4), !BlockID !150, !ValueID !520
  br label %7, !ValueID !521

7:                                                ; preds = %5
  call void @MarkovIncrement(i64 145, i1 false)
  %8 = load %class.anon*, %class.anon** %6, align 8, !BlockID !151, !ValueID !522
  store %class.anon* %8, %class.anon** %3, align 8, !ValueID !523
  %9 = load %class.anon*, %class.anon** %3, align 8, !ValueID !524
  ret %class.anon* %9, !ValueID !525
}

; Function Attrs: noinline optnone uwtable
define internal dereferenceable(8) %class.anon** @"_ZNSt9_Any_data9_M_accessIPZ4mainE3$_0EERT_v"(%"union.std::_Any_data"*) #3 align 2 !ValueID !526 !ArgId0 !527 {
  call void @MarkovIncrement(i64 146, i1 true)
  %2 = alloca %"union.std::_Any_data"*, align 8, !BlockID !152, !ValueID !528
  store %"union.std::_Any_data"* %0, %"union.std::_Any_data"** %2, align 8, !ValueID !529
  %3 = load %"union.std::_Any_data"*, %"union.std::_Any_data"** %2, align 8, !ValueID !530
  br label %4, !ValueID !531

4:                                                ; preds = %1
  call void @MarkovIncrement(i64 147, i1 false)
  %5 = call i8* @_ZNSt9_Any_data9_M_accessEv(%"union.std::_Any_data"* %3), !BlockID !153, !ValueID !532
  br label %6, !ValueID !533

6:                                                ; preds = %4
  call void @MarkovIncrement(i64 148, i1 false)
  %7 = bitcast i8* %5 to %class.anon**, !BlockID !154, !ValueID !534
  ret %class.anon** %7, !ValueID !535
}

; Function Attrs: noinline optnone uwtable
define internal void @"_ZNSt14_Function_base13_Base_managerIZ4mainE3$_0E8_M_cloneERSt9_Any_dataRKS3_St17integral_constantIbLb0EE"(%"union.std::_Any_data"* dereferenceable(16), %"union.std::_Any_data"* dereferenceable(16)) #3 align 2 personality i8* bitcast (i32 (...)* @__gxx_personality_v0 to i8*) !ValueID !536 !ArgId0 !537 !ArgId1 !538 {
  call void @MarkovIncrement(i64 149, i1 true)
  %3 = alloca %"struct.std::_Maybe_unary_or_binary_function", align 1, !BlockID !155, !ValueID !539
  %4 = alloca %"union.std::_Any_data"*, align 8, !ValueID !540
  %5 = alloca %"union.std::_Any_data"*, align 8, !ValueID !541
  %6 = alloca i8*, !ValueID !542
  %7 = alloca i32, !ValueID !543
  store %"union.std::_Any_data"* %0, %"union.std::_Any_data"** %4, align 8, !ValueID !544
  store %"union.std::_Any_data"* %1, %"union.std::_Any_data"** %5, align 8, !ValueID !545
  br label %8, !ValueID !546

8:                                                ; preds = %2
  call void @MarkovIncrement(i64 150, i1 false)
  %9 = call i8* @_Znwm(i64 24) #13, !BlockID !156, !ValueID !547
  br label %10, !ValueID !548

10:                                               ; preds = %8
  call void @MarkovIncrement(i64 151, i1 false)
  %11 = bitcast i8* %9 to %class.anon*, !BlockID !157, !ValueID !549
  %12 = load %"union.std::_Any_data"*, %"union.std::_Any_data"** %5, align 8, !ValueID !550
  br label %13, !ValueID !551

13:                                               ; preds = %10
  call void @MarkovIncrement(i64 152, i1 false)
  %14 = invoke dereferenceable(8) %class.anon** @"_ZNKSt9_Any_data9_M_accessIPZ4mainE3$_0EERKT_v"(%"union.std::_Any_data"* %12)
          to label %15 unwind label %25, !BlockID !158, !ValueID !552

15:                                               ; preds = %13
  call void @MarkovIncrement(i64 153, i1 false)
  %16 = load %class.anon*, %class.anon** %14, align 8, !BlockID !159, !ValueID !553
  %17 = bitcast %class.anon* %11 to i8*, !ValueID !554
  %18 = bitcast %class.anon* %16 to i8*, !ValueID !555
  br label %19, !ValueID !556

19:                                               ; preds = %15
  call void @MarkovIncrement(i64 154, i1 false)
  call void @llvm.memcpy.p0i8.p0i8.i64(i8* align 16 %17, i8* align 8 %18, i64 24, i1 false), !BlockID !230, !ValueID !557
  br label %20, !ValueID !558

20:                                               ; preds = %19
  call void @MarkovIncrement(i64 155, i1 false)
  %21 = load %"union.std::_Any_data"*, %"union.std::_Any_data"** %4, align 8, !BlockID !160, !ValueID !559
  br label %22, !ValueID !560

22:                                               ; preds = %20
  call void @MarkovIncrement(i64 156, i1 false)
  %23 = call dereferenceable(8) %class.anon** @"_ZNSt9_Any_data9_M_accessIPZ4mainE3$_0EERT_v"(%"union.std::_Any_data"* %21), !BlockID !161, !ValueID !561
  br label %24, !ValueID !562

24:                                               ; preds = %22
  call void @MarkovIncrement(i64 157, i1 false)
  store %class.anon* %11, %class.anon** %23, align 8, !BlockID !162, !ValueID !563
  ret void, !ValueID !564

25:                                               ; preds = %13
  %26 = landingpad { i8*, i32 }
          cleanup, !ValueID !565
  call void @MarkovIncrement(i64 158, i1 false)
  %27 = extractvalue { i8*, i32 } %26, 0, !BlockID !163, !ValueID !566
  store i8* %27, i8** %6, align 8, !ValueID !567
  %28 = extractvalue { i8*, i32 } %26, 1, !ValueID !568
  store i32 %28, i32* %7, align 4, !ValueID !569
  br label %29, !ValueID !570

29:                                               ; preds = %25
  call void @MarkovIncrement(i64 159, i1 false)
  call void @_ZdlPv(i8* %9) #14, !BlockID !164, !ValueID !571
  br label %30, !ValueID !572

30:                                               ; preds = %29
  call void @MarkovIncrement(i64 160, i1 false)
  br label %31, !BlockID !165, !ValueID !573

31:                                               ; preds = %30
  call void @MarkovIncrement(i64 161, i1 false)
  %32 = load i8*, i8** %6, align 8, !BlockID !166, !ValueID !574
  %33 = load i32, i32* %7, align 4, !ValueID !575
  %34 = insertvalue { i8*, i32 } undef, i8* %32, 0, !ValueID !576
  %35 = insertvalue { i8*, i32 } %34, i32 %33, 1, !ValueID !577
  resume { i8*, i32 } %35, !ValueID !578
}

; Function Attrs: noinline optnone uwtable
define internal void @"_ZNSt14_Function_base13_Base_managerIZ4mainE3$_0E10_M_destroyERSt9_Any_dataSt17integral_constantIbLb0EE"(%"union.std::_Any_data"* dereferenceable(16)) #3 align 2 !ValueID !579 !ArgId0 !580 {
  call void @MarkovIncrement(i64 162, i1 true)
  %2 = alloca %"struct.std::_Maybe_unary_or_binary_function", align 1, !BlockID !167, !ValueID !581
  %3 = alloca %"union.std::_Any_data"*, align 8, !ValueID !582
  store %"union.std::_Any_data"* %0, %"union.std::_Any_data"** %3, align 8, !ValueID !583
  %4 = load %"union.std::_Any_data"*, %"union.std::_Any_data"** %3, align 8, !ValueID !584
  br label %5, !ValueID !585

5:                                                ; preds = %1
  call void @MarkovIncrement(i64 163, i1 false)
  %6 = call dereferenceable(8) %class.anon** @"_ZNSt9_Any_data9_M_accessIPZ4mainE3$_0EERT_v"(%"union.std::_Any_data"* %4), !BlockID !168, !ValueID !586
  br label %7, !ValueID !587

7:                                                ; preds = %5
  call void @MarkovIncrement(i64 164, i1 false)
  %8 = load %class.anon*, %class.anon** %6, align 8, !BlockID !169, !ValueID !588
  %9 = icmp eq %class.anon* %8, null, !ValueID !589
  br i1 %9, label %14, label %10, !ValueID !590

10:                                               ; preds = %7
  call void @MarkovIncrement(i64 165, i1 false)
  %11 = bitcast %class.anon* %8 to i8*, !BlockID !170, !ValueID !591
  br label %12, !ValueID !592

12:                                               ; preds = %10
  call void @MarkovIncrement(i64 166, i1 false)
  call void @_ZdlPv(i8* %11) #14, !BlockID !171, !ValueID !593
  br label %13, !ValueID !594

13:                                               ; preds = %12
  call void @MarkovIncrement(i64 167, i1 false)
  br label %14, !BlockID !172, !ValueID !595

14:                                               ; preds = %13, %7
  call void @MarkovIncrement(i64 168, i1 false)
  ret void, !BlockID !173, !ValueID !596
}

; Function Attrs: nobuiltin nounwind
declare !ValueID !597 dso_local void @_ZdlPv(i8*) #7

; Function Attrs: nobuiltin
declare !ValueID !598 dso_local noalias i8* @_Znwm(i64) #8

; Function Attrs: noinline optnone uwtable
define internal dereferenceable(8) %class.anon** @"_ZNKSt9_Any_data9_M_accessIPZ4mainE3$_0EERKT_v"(%"union.std::_Any_data"*) #3 align 2 !ValueID !599 !ArgId0 !600 {
  call void @MarkovIncrement(i64 169, i1 true)
  %2 = alloca %"union.std::_Any_data"*, align 8, !BlockID !174, !ValueID !601
  store %"union.std::_Any_data"* %0, %"union.std::_Any_data"** %2, align 8, !ValueID !602
  %3 = load %"union.std::_Any_data"*, %"union.std::_Any_data"** %2, align 8, !ValueID !603
  br label %4, !ValueID !604

4:                                                ; preds = %1
  call void @MarkovIncrement(i64 170, i1 false)
  %5 = call i8* @_ZNKSt9_Any_data9_M_accessEv(%"union.std::_Any_data"* %3), !BlockID !175, !ValueID !605
  br label %6, !ValueID !606

6:                                                ; preds = %4
  call void @MarkovIncrement(i64 171, i1 false)
  %7 = bitcast i8* %5 to %class.anon**, !BlockID !176, !ValueID !607
  ret %class.anon** %7, !ValueID !608
}

; Function Attrs: argmemonly nounwind
declare !ValueID !609 void @llvm.memcpy.p0i8.p0i8.i64(i8* nocapture writeonly, i8* nocapture readonly, i64, i1 immarg) #9

; Function Attrs: noinline nounwind optnone uwtable
define internal i8* @_ZNKSt9_Any_data9_M_accessEv(%"union.std::_Any_data"*) #0 comdat align 2 !ValueID !610 !ArgId0 !611 {
  call void @MarkovIncrement(i64 172, i1 true)
  %2 = alloca %"union.std::_Any_data"*, align 8, !BlockID !177, !ValueID !612
  store %"union.std::_Any_data"* %0, %"union.std::_Any_data"** %2, align 8, !ValueID !613
  %3 = load %"union.std::_Any_data"*, %"union.std::_Any_data"** %2, align 8, !ValueID !614
  %4 = bitcast %"union.std::_Any_data"* %3 to [16 x i8]*, !ValueID !615
  %5 = getelementptr inbounds [16 x i8], [16 x i8]* %4, i64 0, i64 0, !ValueID !616
  ret i8* %5, !ValueID !617
}

; Function Attrs: noinline nounwind optnone uwtable
define internal i8* @_ZNSt9_Any_data9_M_accessEv(%"union.std::_Any_data"*) #0 comdat align 2 !ValueID !618 !ArgId0 !619 {
  call void @MarkovIncrement(i64 173, i1 true)
  %2 = alloca %"union.std::_Any_data"*, align 8, !BlockID !178, !ValueID !620
  store %"union.std::_Any_data"* %0, %"union.std::_Any_data"** %2, align 8, !ValueID !621
  %3 = load %"union.std::_Any_data"*, %"union.std::_Any_data"** %2, align 8, !ValueID !622
  %4 = bitcast %"union.std::_Any_data"* %3 to [16 x i8]*, !ValueID !623
  %5 = getelementptr inbounds [16 x i8], [16 x i8]* %4, i64 0, i64 0, !ValueID !624
  ret i8* %5, !ValueID !625
}

; Function Attrs: noinline nounwind optnone uwtable
define internal void @"_ZZ4mainENK3$_0clEv"(%class.anon*) #0 align 2 !ValueID !626 !ArgId0 !627 {
  call void @MarkovIncrement(i64 174, i1 true)
  %2 = alloca %class.anon*, align 8, !BlockID !179, !ValueID !628
  store %class.anon* %0, %class.anon** %2, align 8, !ValueID !629
  %3 = load %class.anon*, %class.anon** %2, align 8, !ValueID !630
  %4 = getelementptr inbounds %class.anon, %class.anon* %3, i32 0, i32 0, !ValueID !631
  %5 = load [64 x float]**, [64 x float]*** %4, align 8, !ValueID !632
  %6 = load [64 x float]*, [64 x float]** %5, align 8, !ValueID !633
  %7 = getelementptr inbounds %class.anon, %class.anon* %3, i32 0, i32 1, !ValueID !634
  %8 = load [64 x float]**, [64 x float]*** %7, align 8, !ValueID !635
  %9 = load [64 x float]*, [64 x float]** %8, align 8, !ValueID !636
  %10 = getelementptr inbounds %class.anon, %class.anon* %3, i32 0, i32 2, !ValueID !637
  %11 = load [64 x float]**, [64 x float]*** %10, align 8, !ValueID !638
  %12 = load [64 x float]*, [64 x float]** %11, align 8, !ValueID !639
  br label %13, !ValueID !640

13:                                               ; preds = %1
  call void @MarkovIncrement(i64 175, i1 false)
  call void @_Z4GEMMPA64_fS0_S0_([64 x float]* %6, [64 x float]* %9, [64 x float]* %12), !BlockID !180, !ValueID !641
  br label %14, !ValueID !642

14:                                               ; preds = %13
  call void @MarkovIncrement(i64 176, i1 false)
  ret void, !BlockID !181, !ValueID !643
}

; Function Attrs: noinline optnone uwtable
define internal void @"_ZNSt14_Function_base13_Base_managerIZ4mainE3$_0E15_M_init_functorERSt9_Any_dataOS1_St17integral_constantIbLb0EE"(%"union.std::_Any_data"* dereferenceable(16), %class.anon* dereferenceable(24)) #3 align 2 !ValueID !644 !ArgId0 !645 !ArgId1 !646 {
  call void @MarkovIncrement(i64 177, i1 true)
  %3 = alloca %"struct.std::_Maybe_unary_or_binary_function", align 1, !BlockID !182, !ValueID !647
  %4 = alloca %"union.std::_Any_data"*, align 8, !ValueID !648
  %5 = alloca %class.anon*, align 8, !ValueID !649
  store %"union.std::_Any_data"* %0, %"union.std::_Any_data"** %4, align 8, !ValueID !650
  store %class.anon* %1, %class.anon** %5, align 8, !ValueID !651
  br label %6, !ValueID !652

6:                                                ; preds = %2
  call void @MarkovIncrement(i64 178, i1 false)
  %7 = call i8* @_Znwm(i64 24) #13, !BlockID !183, !ValueID !653
  br label %8, !ValueID !654

8:                                                ; preds = %6
  call void @MarkovIncrement(i64 179, i1 false)
  %9 = bitcast i8* %7 to %class.anon*, !BlockID !184, !ValueID !655
  %10 = load %class.anon*, %class.anon** %5, align 8, !ValueID !656
  br label %11, !ValueID !657

11:                                               ; preds = %8
  call void @MarkovIncrement(i64 180, i1 false)
  %12 = call dereferenceable(24) %class.anon* @"_ZSt4moveIRZ4mainE3$_0EONSt16remove_referenceIT_E4typeEOS3_"(%class.anon* dereferenceable(24) %10) #10, !BlockID !185, !ValueID !658
  br label %13, !ValueID !659

13:                                               ; preds = %11
  call void @MarkovIncrement(i64 181, i1 false)
  %14 = bitcast %class.anon* %9 to i8*, !BlockID !186, !ValueID !660
  %15 = bitcast %class.anon* %12 to i8*, !ValueID !661
  br label %16, !ValueID !662

16:                                               ; preds = %13
  call void @MarkovIncrement(i64 182, i1 false)
  call void @llvm.memcpy.p0i8.p0i8.i64(i8* align 16 %14, i8* align 8 %15, i64 24, i1 false), !BlockID !187, !ValueID !663
  br label %17, !ValueID !664

17:                                               ; preds = %16
  call void @MarkovIncrement(i64 183, i1 false)
  %18 = load %"union.std::_Any_data"*, %"union.std::_Any_data"** %4, align 8, !BlockID !188, !ValueID !665
  br label %19, !ValueID !666

19:                                               ; preds = %17
  call void @MarkovIncrement(i64 184, i1 false)
  %20 = call dereferenceable(8) %class.anon** @"_ZNSt9_Any_data9_M_accessIPZ4mainE3$_0EERT_v"(%"union.std::_Any_data"* %18), !BlockID !189, !ValueID !667
  br label %21, !ValueID !668

21:                                               ; preds = %19
  call void @MarkovIncrement(i64 185, i1 false)
  store %class.anon* %9, %class.anon** %20, align 8, !BlockID !190, !ValueID !669
  ret void, !ValueID !670
}

declare void @MarkovInit(i64, i64)

declare void @MarkovDestroy()

declare void @MarkovIncrement(i64, i1)

declare void @MarkovLaunch(i64)

attributes #0 = { noinline nounwind optnone uwtable "correctly-rounded-divide-sqrt-fp-math"="false" "disable-tail-calls"="false" "less-precise-fpmad"="false" "min-legal-vector-width"="0" "no-frame-pointer-elim"="true" "no-frame-pointer-elim-non-leaf" "no-infs-fp-math"="false" "no-jump-tables"="false" "no-nans-fp-math"="false" "no-signed-zeros-fp-math"="false" "no-trapping-math"="false" "stack-protector-buffer-size"="8" "target-cpu"="x86-64" "target-features"="+cx8,+fxsr,+mmx,+sse,+sse2,+x87" "unsafe-fp-math"="false" "use-soft-float"="false" }
attributes #1 = { nounwind "correctly-rounded-divide-sqrt-fp-math"="false" "disable-tail-calls"="false" "less-precise-fpmad"="false" "no-frame-pointer-elim"="true" "no-frame-pointer-elim-non-leaf" "no-infs-fp-math"="false" "no-nans-fp-math"="false" "no-signed-zeros-fp-math"="false" "no-trapping-math"="false" "stack-protector-buffer-size"="8" "target-cpu"="x86-64" "target-features"="+cx8,+fxsr,+mmx,+sse,+sse2,+x87" "unsafe-fp-math"="false" "use-soft-float"="false" }
attributes #2 = { noinline norecurse optnone uwtable "correctly-rounded-divide-sqrt-fp-math"="false" "disable-tail-calls"="false" "less-precise-fpmad"="false" "min-legal-vector-width"="0" "no-frame-pointer-elim"="true" "no-frame-pointer-elim-non-leaf" "no-infs-fp-math"="false" "no-jump-tables"="false" "no-nans-fp-math"="false" "no-signed-zeros-fp-math"="false" "no-trapping-math"="false" "stack-protector-buffer-size"="8" "target-cpu"="x86-64" "target-features"="+cx8,+fxsr,+mmx,+sse,+sse2,+x87" "unsafe-fp-math"="false" "use-soft-float"="false" }
attributes #3 = { noinline optnone uwtable "correctly-rounded-divide-sqrt-fp-math"="false" "disable-tail-calls"="false" "less-precise-fpmad"="false" "min-legal-vector-width"="0" "no-frame-pointer-elim"="true" "no-frame-pointer-elim-non-leaf" "no-infs-fp-math"="false" "no-jump-tables"="false" "no-nans-fp-math"="false" "no-signed-zeros-fp-math"="false" "no-trapping-math"="false" "stack-protector-buffer-size"="8" "target-cpu"="x86-64" "target-features"="+cx8,+fxsr,+mmx,+sse,+sse2,+x87" "unsafe-fp-math"="false" "use-soft-float"="false" }
attributes #4 = { noinline noreturn nounwind }
attributes #5 = { "correctly-rounded-divide-sqrt-fp-math"="false" "disable-tail-calls"="false" "less-precise-fpmad"="false" "no-frame-pointer-elim"="true" "no-frame-pointer-elim-non-leaf" "no-infs-fp-math"="false" "no-nans-fp-math"="false" "no-signed-zeros-fp-math"="false" "no-trapping-math"="false" "stack-protector-buffer-size"="8" "target-cpu"="x86-64" "target-features"="+cx8,+fxsr,+mmx,+sse,+sse2,+x87" "unsafe-fp-math"="false" "use-soft-float"="false" }
attributes #6 = { noreturn "correctly-rounded-divide-sqrt-fp-math"="false" "disable-tail-calls"="false" "less-precise-fpmad"="false" "no-frame-pointer-elim"="true" "no-frame-pointer-elim-non-leaf" "no-infs-fp-math"="false" "no-nans-fp-math"="false" "no-signed-zeros-fp-math"="false" "no-trapping-math"="false" "stack-protector-buffer-size"="8" "target-cpu"="x86-64" "target-features"="+cx8,+fxsr,+mmx,+sse,+sse2,+x87" "unsafe-fp-math"="false" "use-soft-float"="false" }
attributes #7 = { nobuiltin nounwind "correctly-rounded-divide-sqrt-fp-math"="false" "disable-tail-calls"="false" "less-precise-fpmad"="false" "no-frame-pointer-elim"="true" "no-frame-pointer-elim-non-leaf" "no-infs-fp-math"="false" "no-nans-fp-math"="false" "no-signed-zeros-fp-math"="false" "no-trapping-math"="false" "stack-protector-buffer-size"="8" "target-cpu"="x86-64" "target-features"="+cx8,+fxsr,+mmx,+sse,+sse2,+x87" "unsafe-fp-math"="false" "use-soft-float"="false" }
attributes #8 = { nobuiltin "correctly-rounded-divide-sqrt-fp-math"="false" "disable-tail-calls"="false" "less-precise-fpmad"="false" "no-frame-pointer-elim"="true" "no-frame-pointer-elim-non-leaf" "no-infs-fp-math"="false" "no-nans-fp-math"="false" "no-signed-zeros-fp-math"="false" "no-trapping-math"="false" "stack-protector-buffer-size"="8" "target-cpu"="x86-64" "target-features"="+cx8,+fxsr,+mmx,+sse,+sse2,+x87" "unsafe-fp-math"="false" "use-soft-float"="false" }
attributes #9 = { argmemonly nounwind }
attributes #10 = { nounwind }
attributes #11 = { noreturn nounwind }
attributes #12 = { noreturn }
attributes #13 = { builtin }
attributes #14 = { builtin nounwind }

!llvm.ident = !{!4}
!llvm.module.flags = !{!5, !6, !7}

!0 = !{i64 2}
!1 = !{i64 10}
!2 = !{i64 33}
!3 = !{i64 36}
!4 = !{!"clang version 9.0.1 "}
!5 = !{i32 1, !"wchar_size", i32 4}
!6 = !{i32 1, !"ThinLTO", i32 0}
!7 = !{i32 1, !"EnableSplitLTOUnit", i32 0}
!8 = !{i64 293}
!9 = !{i64 0}
!10 = !{i64 1}
!11 = !{i64 4}
!12 = !{i64 5}
!13 = !{i64 3}
!14 = !{i64 312}
!15 = !{i64 6}
!16 = !{i64 7}
!17 = !{i64 8}
!18 = !{i64 9}
!19 = !{i64 11}
!20 = !{i64 12}
!21 = !{i64 13}
!22 = !{i64 14}
!23 = !{i64 15}
!24 = !{i64 16}
!25 = !{i64 17}
!26 = !{i64 18}
!27 = !{i64 19}
!28 = !{i64 20}
!29 = !{i64 21}
!30 = !{i64 22}
!31 = !{i64 23}
!32 = !{i64 24}
!33 = !{i64 26}
!34 = !{i64 27}
!35 = !{i64 28}
!36 = !{i64 29}
!37 = !{i64 30}
!38 = !{i64 31}
!39 = !{i64 32}
!40 = !{i64 34}
!41 = !{i64 35}
!42 = !{i64 37}
!43 = !{i64 38}
!44 = !{i64 39}
!45 = !{i64 40}
!46 = !{i64 41}
!47 = !{i64 42}
!48 = !{i64 43}
!49 = !{i64 44}
!50 = !{i64 25}
!51 = !{i64 638}
!52 = !{i64 52}
!53 = !{i64 54}
!54 = !{i64 56}
!55 = !{i64 45}
!56 = !{i64 46}
!57 = !{i64 47}
!58 = !{i64 48}
!59 = !{i64 49}
!60 = !{i64 50}
!61 = !{i64 51}
!62 = !{i64 53}
!63 = !{i64 55}
!64 = !{i64 57}
!65 = !{i64 58}
!66 = !{i64 59}
!67 = !{i64 60}
!68 = !{i64 61}
!69 = !{i64 62}
!70 = !{i64 63}
!71 = !{i64 64}
!72 = !{i64 65}
!73 = !{i64 66}
!74 = !{i64 67}
!75 = !{i64 68}
!76 = !{i64 69}
!77 = !{i64 70}
!78 = !{i64 71}
!79 = !{i64 72}
!80 = !{i64 73}
!81 = !{i64 74}
!82 = !{i64 75}
!83 = !{i64 76}
!84 = !{i64 77}
!85 = !{i64 78}
!86 = !{i64 79}
!87 = !{i64 80}
!88 = !{i64 81}
!89 = !{i64 82}
!90 = !{i64 83}
!91 = !{i64 84}
!92 = !{i64 85}
!93 = !{i64 86}
!94 = !{i64 87}
!95 = !{i64 88}
!96 = !{i64 89}
!97 = !{i64 90}
!98 = !{i64 91}
!99 = !{i64 92}
!100 = !{i64 93}
!101 = !{i64 94}
!102 = !{i64 95}
!103 = !{i64 96}
!104 = !{i64 97}
!105 = !{i64 98}
!106 = !{i64 99}
!107 = !{i64 100}
!108 = !{i64 101}
!109 = !{i64 102}
!110 = !{i64 103}
!111 = !{i64 104}
!112 = !{i64 105}
!113 = !{i64 106}
!114 = !{i64 107}
!115 = !{i64 108}
!116 = !{i64 109}
!117 = !{i64 110}
!118 = !{i64 111}
!119 = !{i64 112}
!120 = !{i64 113}
!121 = !{i64 114}
!122 = !{i64 115}
!123 = !{i64 116}
!124 = !{i64 117}
!125 = !{i64 118}
!126 = !{i64 119}
!127 = !{i64 120}
!128 = !{i64 121}
!129 = !{i64 122}
!130 = !{i64 123}
!131 = !{i64 124}
!132 = !{i64 125}
!133 = !{i64 126}
!134 = !{i64 127}
!135 = !{i64 129}
!136 = !{i64 130}
!137 = !{i64 131}
!138 = !{i64 132}
!139 = !{i64 133}
!140 = !{i64 134}
!141 = !{i64 135}
!142 = !{i64 136}
!143 = !{i64 137}
!144 = !{i64 138}
!145 = !{i64 139}
!146 = !{i64 140}
!147 = !{i64 141}
!148 = !{i64 142}
!149 = !{i64 143}
!150 = !{i64 144}
!151 = !{i64 145}
!152 = !{i64 146}
!153 = !{i64 147}
!154 = !{i64 148}
!155 = !{i64 149}
!156 = !{i64 150}
!157 = !{i64 151}
!158 = !{i64 152}
!159 = !{i64 153}
!160 = !{i64 155}
!161 = !{i64 156}
!162 = !{i64 157}
!163 = !{i64 158}
!164 = !{i64 159}
!165 = !{i64 160}
!166 = !{i64 161}
!167 = !{i64 162}
!168 = !{i64 163}
!169 = !{i64 164}
!170 = !{i64 165}
!171 = !{i64 166}
!172 = !{i64 167}
!173 = !{i64 168}
!174 = !{i64 169}
!175 = !{i64 170}
!176 = !{i64 171}
!177 = !{i64 172}
!178 = !{i64 173}
!179 = !{i64 174}
!180 = !{i64 175}
!181 = !{i64 176}
!182 = !{i64 177}
!183 = !{i64 178}
!184 = !{i64 179}
!185 = !{i64 180}
!186 = !{i64 181}
!187 = !{i64 182}
!188 = !{i64 183}
!189 = !{i64 184}
!190 = !{i64 185}
!191 = !{i64 186}
!192 = !{i64 187}
!193 = !{i64 188}
!194 = !{i64 189}
!195 = !{i64 190}
!196 = !{i64 191}
!197 = !{i64 192}
!198 = !{i64 193}
!199 = !{i64 194}
!200 = !{i64 195}
!201 = !{i64 196}
!202 = !{i64 197}
!203 = !{i64 198}
!204 = !{i64 199}
!205 = !{i64 200}
!206 = !{i64 201}
!207 = !{i64 202}
!208 = !{i64 204}
!209 = !{i64 205}
!210 = !{i64 206}
!211 = !{i64 208}
!212 = !{i64 209}
!213 = !{i64 211}
!214 = !{i64 212}
!215 = !{i64 213}
!216 = !{i64 214}
!217 = !{i64 215}
!218 = !{i64 216}
!219 = !{i64 217}
!220 = !{i64 218}
!221 = !{i64 219}
!222 = !{i64 220}
!223 = !{i64 221}
!224 = !{i64 222}
!225 = !{i64 223}
!226 = !{i64 224}
!227 = !{i64 225}
!228 = !{i64 226}
!229 = !{i64 128}
!230 = !{i64 154}
!231 = !{i64 203}
!232 = !{i64 231}
!233 = !{i64 241}
!234 = !{i64 227}
!235 = !{i64 228}
!236 = !{i64 229}
!237 = !{i64 230}
!238 = !{i64 232}
!239 = !{i64 233}
!240 = !{i64 234}
!241 = !{i64 235}
!242 = !{i64 236}
!243 = !{i64 238}
!244 = !{i64 239}
!245 = !{i64 240}
!246 = !{i64 243}
!247 = !{i64 244}
!248 = !{i64 245}
!249 = !{i64 246}
!250 = !{i64 247}
!251 = !{i64 249}
!252 = !{i64 250}
!253 = !{i64 251}
!254 = !{i64 253}
!255 = !{i64 254}
!256 = !{i64 256}
!257 = !{i64 257}
!258 = !{i64 258}
!259 = !{i64 260}
!260 = !{i64 261}
!261 = !{i64 262}
!262 = !{i64 263}
!263 = !{i64 264}
!264 = !{i64 265}
!265 = !{i64 266}
!266 = !{i64 267}
!267 = !{i64 268}
!268 = !{i64 270}
!269 = !{i64 271}
!270 = !{i64 272}
!271 = !{i64 273}
!272 = !{i64 274}
!273 = !{i64 275}
!274 = !{i64 276}
!275 = !{i64 277}
!276 = !{i64 207}
!277 = !{i64 284}
!278 = !{i64 278}
!279 = !{i64 279}
!280 = !{i64 280}
!281 = !{i64 281}
!282 = !{i64 282}
!283 = !{i64 283}
!284 = !{i64 285}
!285 = !{i64 286}
!286 = !{i64 287}
!287 = !{i64 288}
!288 = !{i64 289}
!289 = !{i64 290}
!290 = !{i64 291}
!291 = !{i64 292}
!292 = !{i64 294}
!293 = !{i64 295}
!294 = !{i64 296}
!295 = !{i64 297}
!296 = !{i64 298}
!297 = !{i64 299}
!298 = !{i64 300}
!299 = !{i64 301}
!300 = !{i64 302}
!301 = !{i64 304}
!302 = !{i64 305}
!303 = !{i64 306}
!304 = !{i64 307}
!305 = !{i64 308}
!306 = !{i64 309}
!307 = !{i64 310}
!308 = !{i64 311}
!309 = !{i64 313}
!310 = !{i64 314}
!311 = !{i64 315}
!312 = !{i64 316}
!313 = !{i64 317}
!314 = !{i64 318}
!315 = !{i64 319}
!316 = !{i64 320}
!317 = !{i64 321}
!318 = !{i64 322}
!319 = !{i64 323}
!320 = !{i64 324}
!321 = !{i64 325}
!322 = !{i64 326}
!323 = !{i64 327}
!324 = !{i64 328}
!325 = !{i64 329}
!326 = !{i64 330}
!327 = !{i64 331}
!328 = !{i64 332}
!329 = !{i64 333}
!330 = !{i64 335}
!331 = !{i64 336}
!332 = !{i64 337}
!333 = !{i64 338}
!334 = !{i64 210}
!335 = !{i64 341}
!336 = !{i64 339}
!337 = !{i64 340}
!338 = !{i64 342}
!339 = !{i64 343}
!340 = !{i64 344}
!341 = !{i64 345}
!342 = !{i64 346}
!343 = !{i64 347}
!344 = !{i64 269}
!345 = !{i64 350}
!346 = !{i64 348}
!347 = !{i64 349}
!348 = !{i64 351}
!349 = !{i64 352}
!350 = !{i64 353}
!351 = !{i64 354}
!352 = !{i64 355}
!353 = !{i64 356}
!354 = !{i64 357}
!355 = !{i64 358}
!356 = !{i64 359}
!357 = !{i64 360}
!358 = !{i64 361}
!359 = !{i64 362}
!360 = !{i64 363}
!361 = !{i64 364}
!362 = !{i64 365}
!363 = !{i64 366}
!364 = !{i64 367}
!365 = !{i64 369}
!366 = !{i64 370}
!367 = !{i64 368}
!368 = !{i64 373}
!369 = !{i64 371}
!370 = !{i64 372}
!371 = !{i64 375}
!372 = !{i64 376}
!373 = !{i64 377}
!374 = !{i64 379}
!375 = !{i64 380}
!376 = !{i64 374}
!377 = !{i64 378}
!378 = !{i64 303}
!379 = !{i64 383}
!380 = !{i64 381}
!381 = !{i64 382}
!382 = !{i64 384}
!383 = !{i64 385}
!384 = !{i64 386}
!385 = !{i64 387}
!386 = !{i64 389}
!387 = !{i64 390}
!388 = !{i64 391}
!389 = !{i64 392}
!390 = !{i64 394}
!391 = !{i64 395}
!392 = !{i64 396}
!393 = !{i64 397}
!394 = !{i64 398}
!395 = !{i64 399}
!396 = !{i64 400}
!397 = !{i64 401}
!398 = !{i64 402}
!399 = !{i64 403}
!400 = !{i64 334}
!401 = !{i64 388}
!402 = !{i64 406}
!403 = !{i64 404}
!404 = !{i64 405}
!405 = !{i64 407}
!406 = !{i64 408}
!407 = !{i64 409}
!408 = !{i64 410}
!409 = !{i64 411}
!410 = !{i64 412}
!411 = !{i64 393}
!412 = !{i64 237}
!413 = !{i64 415}
!414 = !{i64 413}
!415 = !{i64 414}
!416 = !{i64 416}
!417 = !{i64 417}
!418 = !{i64 418}
!419 = !{i64 419}
!420 = !{i64 420}
!421 = !{i64 242}
!422 = !{i64 423}
!423 = !{i64 421}
!424 = !{i64 422}
!425 = !{i64 424}
!426 = !{i64 248}
!427 = !{i64 427}
!428 = !{i64 425}
!429 = !{i64 426}
!430 = !{i64 428}
!431 = !{i64 429}
!432 = !{i64 252}
!433 = !{i64 434}
!434 = !{i64 436}
!435 = !{i64 430}
!436 = !{i64 431}
!437 = !{i64 432}
!438 = !{i64 433}
!439 = !{i64 435}
!440 = !{i64 437}
!441 = !{i64 438}
!442 = !{i64 439}
!443 = !{i64 440}
!444 = !{i64 441}
!445 = !{i64 442}
!446 = !{i64 443}
!447 = !{i64 445}
!448 = !{i64 446}
!449 = !{i64 255}
!450 = !{i64 449}
!451 = !{i64 447}
!452 = !{i64 448}
!453 = !{i64 450}
!454 = !{i64 451}
!455 = !{i64 452}
!456 = !{i64 454}
!457 = !{i64 455}
!458 = !{i64 456}
!459 = !{i64 458}
!460 = !{i64 459}
!461 = !{i64 259}
!462 = !{i64 466}
!463 = !{i64 468}
!464 = !{i64 470}
!465 = !{i64 460}
!466 = !{i64 461}
!467 = !{i64 462}
!468 = !{i64 463}
!469 = !{i64 464}
!470 = !{i64 465}
!471 = !{i64 467}
!472 = !{i64 469}
!473 = !{i64 471}
!474 = !{i64 472}
!475 = !{i64 473}
!476 = !{i64 474}
!477 = !{i64 475}
!478 = !{i64 477}
!479 = !{i64 478}
!480 = !{i64 479}
!481 = !{i64 480}
!482 = !{i64 481}
!483 = !{i64 482}
!484 = !{i64 483}
!485 = !{i64 484}
!486 = !{i64 485}
!487 = !{i64 486}
!488 = !{i64 488}
!489 = !{i64 489}
!490 = !{i64 490}
!491 = !{i64 491}
!492 = !{i64 492}
!493 = !{i64 493}
!494 = !{i64 494}
!495 = !{i64 496}
!496 = !{i64 497}
!497 = !{i64 498}
!498 = !{i64 499}
!499 = !{i64 500}
!500 = !{i64 502}
!501 = !{i64 503}
!502 = !{i64 504}
!503 = !{i64 476}
!504 = !{i64 507}
!505 = !{i64 505}
!506 = !{i64 506}
!507 = !{i64 508}
!508 = !{i64 509}
!509 = !{i64 510}
!510 = !{i64 512}
!511 = !{i64 513}
!512 = !{i64 514}
!513 = !{i64 453}
!514 = !{i64 518}
!515 = !{i64 515}
!516 = !{i64 516}
!517 = !{i64 517}
!518 = !{i64 519}
!519 = !{i64 520}
!520 = !{i64 521}
!521 = !{i64 523}
!522 = !{i64 524}
!523 = !{i64 525}
!524 = !{i64 526}
!525 = !{i64 527}
!526 = !{i64 487}
!527 = !{i64 530}
!528 = !{i64 528}
!529 = !{i64 529}
!530 = !{i64 531}
!531 = !{i64 532}
!532 = !{i64 533}
!533 = !{i64 534}
!534 = !{i64 535}
!535 = !{i64 536}
!536 = !{i64 495}
!537 = !{i64 543}
!538 = !{i64 545}
!539 = !{i64 537}
!540 = !{i64 538}
!541 = !{i64 539}
!542 = !{i64 540}
!543 = !{i64 541}
!544 = !{i64 542}
!545 = !{i64 544}
!546 = !{i64 546}
!547 = !{i64 547}
!548 = !{i64 549}
!549 = !{i64 550}
!550 = !{i64 551}
!551 = !{i64 552}
!552 = !{i64 553}
!553 = !{i64 554}
!554 = !{i64 555}
!555 = !{i64 556}
!556 = !{i64 557}
!557 = !{i64 558}
!558 = !{i64 560}
!559 = !{i64 561}
!560 = !{i64 562}
!561 = !{i64 563}
!562 = !{i64 564}
!563 = !{i64 565}
!564 = !{i64 566}
!565 = !{i64 567}
!566 = !{i64 568}
!567 = !{i64 569}
!568 = !{i64 570}
!569 = !{i64 571}
!570 = !{i64 572}
!571 = !{i64 573}
!572 = !{i64 575}
!573 = !{i64 576}
!574 = !{i64 577}
!575 = !{i64 578}
!576 = !{i64 579}
!577 = !{i64 580}
!578 = !{i64 581}
!579 = !{i64 501}
!580 = !{i64 585}
!581 = !{i64 582}
!582 = !{i64 583}
!583 = !{i64 584}
!584 = !{i64 586}
!585 = !{i64 587}
!586 = !{i64 588}
!587 = !{i64 589}
!588 = !{i64 590}
!589 = !{i64 591}
!590 = !{i64 592}
!591 = !{i64 593}
!592 = !{i64 594}
!593 = !{i64 595}
!594 = !{i64 596}
!595 = !{i64 597}
!596 = !{i64 598}
!597 = !{i64 574}
!598 = !{i64 548}
!599 = !{i64 522}
!600 = !{i64 601}
!601 = !{i64 599}
!602 = !{i64 600}
!603 = !{i64 602}
!604 = !{i64 603}
!605 = !{i64 604}
!606 = !{i64 606}
!607 = !{i64 607}
!608 = !{i64 608}
!609 = !{i64 559}
!610 = !{i64 605}
!611 = !{i64 611}
!612 = !{i64 609}
!613 = !{i64 610}
!614 = !{i64 612}
!615 = !{i64 613}
!616 = !{i64 614}
!617 = !{i64 615}
!618 = !{i64 511}
!619 = !{i64 618}
!620 = !{i64 616}
!621 = !{i64 617}
!622 = !{i64 619}
!623 = !{i64 620}
!624 = !{i64 621}
!625 = !{i64 622}
!626 = !{i64 457}
!627 = !{i64 625}
!628 = !{i64 623}
!629 = !{i64 624}
!630 = !{i64 626}
!631 = !{i64 627}
!632 = !{i64 628}
!633 = !{i64 629}
!634 = !{i64 630}
!635 = !{i64 631}
!636 = !{i64 632}
!637 = !{i64 633}
!638 = !{i64 634}
!639 = !{i64 635}
!640 = !{i64 636}
!641 = !{i64 637}
!642 = !{i64 639}
!643 = !{i64 640}
!644 = !{i64 444}
!645 = !{i64 645}
!646 = !{i64 647}
!647 = !{i64 641}
!648 = !{i64 642}
!649 = !{i64 643}
!650 = !{i64 644}
!651 = !{i64 646}
!652 = !{i64 648}
!653 = !{i64 649}
!654 = !{i64 650}
!655 = !{i64 651}
!656 = !{i64 652}
!657 = !{i64 653}
!658 = !{i64 654}
!659 = !{i64 655}
!660 = !{i64 656}
!661 = !{i64 657}
!662 = !{i64 658}
!663 = !{i64 659}
!664 = !{i64 660}
!665 = !{i64 661}
!666 = !{i64 662}
!667 = !{i64 663}
!668 = !{i64 664}
!669 = !{i64 665}
!670 = !{i64 666}
